Archive member included to satisfy reference by file (symbol)

../libapp.a(main.c.obj)       (--whole-archive)
libzephyr.a(isr_tables.c.obj)
                              (--whole-archive)
libzephyr.a(mpu_regions.c.obj)
                              (--whole-archive)
libzephyr.a(power.c.obj)      (--whole-archive)
libzephyr.a(soc.c.obj)        (--whole-archive)
libzephyr.a(thread_entry.c.obj)
                              (--whole-archive)
libzephyr.a(crc16_sw.c.obj)   (--whole-archive)
libzephyr.a(crc8_sw.c.obj)    (--whole-archive)
libzephyr.a(mempool.c.obj)    (--whole-archive)
libzephyr.a(rb.c.obj)         (--whole-archive)
libzephyr.a(printk.c.obj)     (--whole-archive)
libzephyr.a(configs.c.obj)    (--whole-archive)
libzephyr.a(nrfx_glue.c.obj)  (--whole-archive)
libzephyr.a(sys_log.c.obj)    (--whole-archive)
libzephyr.a(rand32_entropy_device.c.obj)
                              (--whole-archive)
libzephyr.a(uart_console.c.obj)
                              (--whole-archive)
libzephyr.a(nrf5_power_clock.c.obj)
                              (--whole-archive)
libzephyr.a(sys_clock_init.c.obj)
                              (--whole-archive)
libzephyr.a(nrf_rtc_timer.c.obj)
                              (--whole-archive)
arch/arm/core/libarch__arm__core.a(exc_exit.S.obj)
                              (--whole-archive)
arch/arm/core/libarch__arm__core.a(irq_init.c.obj)
                              (--whole-archive)
arch/arm/core/libarch__arm__core.a(swap.c.obj)
                              (--whole-archive)
arch/arm/core/libarch__arm__core.a(swap_helper.S.obj)
                              (--whole-archive)
arch/arm/core/libarch__arm__core.a(fault.c.obj)
                              (--whole-archive)
arch/arm/core/libarch__arm__core.a(irq_manage.c.obj)
                              (--whole-archive)
arch/arm/core/libarch__arm__core.a(thread.c.obj)
                              (--whole-archive)
arch/arm/core/libarch__arm__core.a(cpu_idle.S.obj)
                              (--whole-archive)
arch/arm/core/libarch__arm__core.a(fault_s.S.obj)
                              (--whole-archive)
arch/arm/core/libarch__arm__core.a(fatal.c.obj)
                              (--whole-archive)
arch/arm/core/libarch__arm__core.a(sys_fatal_error_handler.c.obj)
                              (--whole-archive)
arch/arm/core/libarch__arm__core.a(thread_abort.c.obj)
                              (--whole-archive)
arch/arm/core/libarch__arm__core.a(isr_wrapper.S.obj)
                              (--whole-archive)
arch/arm/core/cortex_m/libarch__arm__core__cortex_m.a(vector_table.S.obj)
                              (--whole-archive)
arch/arm/core/cortex_m/libarch__arm__core__cortex_m.a(reset.S.obj)
                              (--whole-archive)
arch/arm/core/cortex_m/libarch__arm__core__cortex_m.a(nmi_on_reset.S.obj)
                              (--whole-archive)
arch/arm/core/cortex_m/libarch__arm__core__cortex_m.a(prep_c.c.obj)
                              (--whole-archive)
arch/arm/core/cortex_m/libarch__arm__core__cortex_m.a(scb.c.obj)
                              (--whole-archive)
arch/arm/core/cortex_m/libarch__arm__core__cortex_m.a(nmi.c.obj)
                              (--whole-archive)
arch/arm/core/cortex_m/libarch__arm__core__cortex_m.a(exc_manage.c.obj)
                              (--whole-archive)
arch/arm/core/cortex_m/mpu/libarch__arm__core__cortex_m__mpu.a(arm_core_mpu.c.obj)
                              (--whole-archive)
arch/arm/core/cortex_m/mpu/libarch__arm__core__cortex_m__mpu.a(arm_mpu.c.obj)
                              (--whole-archive)
lib/libc/minimal/liblib__libc__minimal.a(atoi.c.obj)
                              (--whole-archive)
lib/libc/minimal/liblib__libc__minimal.a(strtol.c.obj)
                              (--whole-archive)
lib/libc/minimal/liblib__libc__minimal.a(strtoul.c.obj)
                              (--whole-archive)
lib/libc/minimal/liblib__libc__minimal.a(strncasecmp.c.obj)
                              (--whole-archive)
lib/libc/minimal/liblib__libc__minimal.a(strstr.c.obj)
                              (--whole-archive)
lib/libc/minimal/liblib__libc__minimal.a(string.c.obj)
                              (--whole-archive)
lib/libc/minimal/liblib__libc__minimal.a(prf.c.obj)
                              (--whole-archive)
lib/libc/minimal/liblib__libc__minimal.a(stdout_console.c.obj)
                              (--whole-archive)
lib/libc/minimal/liblib__libc__minimal.a(sprintf.c.obj)
                              (--whole-archive)
lib/libc/minimal/liblib__libc__minimal.a(fprintf.c.obj)
                              (--whole-archive)
subsys/bluetooth/common/libsubsys__bluetooth__common.a(dummy.c.obj)
                              (--whole-archive)
subsys/bluetooth/common/libsubsys__bluetooth__common.a(log.c.obj)
                              (--whole-archive)
subsys/bluetooth/host/libsubsys__bluetooth__host.a(uuid.c.obj)
                              (--whole-archive)
subsys/bluetooth/host/libsubsys__bluetooth__host.a(hci_core.c.obj)
                              (--whole-archive)
subsys/bluetooth/controller/libsubsys__bluetooth__controller.a(mem.c.obj)
                              (--whole-archive)
subsys/bluetooth/controller/libsubsys__bluetooth__controller.a(memq.c.obj)
                              (--whole-archive)
subsys/bluetooth/controller/libsubsys__bluetooth__controller.a(mayfly.c.obj)
                              (--whole-archive)
subsys/bluetooth/controller/libsubsys__bluetooth__controller.a(util.c.obj)
                              (--whole-archive)
subsys/bluetooth/controller/libsubsys__bluetooth__controller.a(ticker.c.obj)
                              (--whole-archive)
subsys/bluetooth/controller/libsubsys__bluetooth__controller.a(ll_addr.c.obj)
                              (--whole-archive)
subsys/bluetooth/controller/libsubsys__bluetooth__controller.a(ll_tx_pwr.c.obj)
                              (--whole-archive)
subsys/bluetooth/controller/libsubsys__bluetooth__controller.a(crypto.c.obj)
                              (--whole-archive)
subsys/bluetooth/controller/libsubsys__bluetooth__controller.a(hci_driver.c.obj)
                              (--whole-archive)
subsys/bluetooth/controller/libsubsys__bluetooth__controller.a(hci.c.obj)
                              (--whole-archive)
subsys/bluetooth/controller/libsubsys__bluetooth__controller.a(ctrl.c.obj)
                              (--whole-archive)
subsys/bluetooth/controller/libsubsys__bluetooth__controller.a(ll.c.obj)
                              (--whole-archive)
subsys/bluetooth/controller/libsubsys__bluetooth__controller.a(ll_adv.c.obj)
                              (--whole-archive)
subsys/bluetooth/controller/libsubsys__bluetooth__controller.a(ll_scan.c.obj)
                              (--whole-archive)
subsys/bluetooth/controller/libsubsys__bluetooth__controller.a(ll_filter.c.obj)
                              (--whole-archive)
subsys/bluetooth/controller/libsubsys__bluetooth__controller.a(cntr.c.obj)
                              (--whole-archive)
subsys/bluetooth/controller/libsubsys__bluetooth__controller.a(ecb.c.obj)
                              (--whole-archive)
subsys/bluetooth/controller/libsubsys__bluetooth__controller.a(radio.c.obj)
                              (--whole-archive)
subsys/bluetooth/controller/libsubsys__bluetooth__controller.a(mayfly.c.obj)
                              (--whole-archive)
subsys/bluetooth/controller/libsubsys__bluetooth__controller.a(ticker.c.obj)
                              (--whole-archive)
subsys/net/libsubsys__net.a(buf.c.obj)
                              (--whole-archive)
drivers/gpio/libdrivers__gpio.a(gpio_nrf5.c.obj)
                              (--whole-archive)
drivers/serial/libdrivers__serial.a(uart_nrfx_uart.c.obj)
                              (--whole-archive)
drivers/entropy/libdrivers__entropy.a(entropy_nrf5.c.obj)
                              (--whole-archive)
kernel/libkernel.a(device.c.obj)
                              libzephyr.a(rand32_entropy_device.c.obj) (device_get_binding)
kernel/libkernel.a(errno.c.obj)
                              lib/libc/minimal/liblib__libc__minimal.a(strtol.c.obj) (__errno)
kernel/libkernel.a(idle.c.obj)
                              arch/arm/core/libarch__arm__core.a(irq_manage.c.obj) (_sys_power_save_idle_exit)
kernel/libkernel.a(init.c.obj)
                              arch/arm/core/cortex_m/libarch__arm__core__cortex_m.a(prep_c.c.obj) (_bss_zero)
kernel/libkernel.a(mempool.c.obj)
                              subsys/net/libsubsys__net.a(buf.c.obj) (k_mem_pool_alloc)
kernel/libkernel.a(mutex.c.obj)
                              libzephyr.a(mempool.c.obj) (_impl_k_mutex_lock)
kernel/libkernel.a(queue.c.obj)
                              subsys/bluetooth/host/libsubsys__bluetooth__host.a(hci_core.c.obj) (k_queue_append)
kernel/libkernel.a(sched.c.obj)
                              arch/arm/core/libarch__arm__core.a(exc_exit.S.obj) (_kernel)
kernel/libkernel.a(sem.c.obj)
                              subsys/bluetooth/host/libsubsys__bluetooth__host.a(hci_core.c.obj) (_impl_k_sem_init)
kernel/libkernel.a(sys_clock.c.obj)
                              libzephyr.a(nrf_rtc_timer.c.obj) (_sys_clock_tick_count)
kernel/libkernel.a(system_work_q.c.obj)
                              subsys/bluetooth/host/libsubsys__bluetooth__host.a(hci_core.c.obj) (k_sys_work_q)
kernel/libkernel.a(thread.c.obj)
                              arch/arm/core/libarch__arm__core.a(sys_fatal_error_handler.c.obj) (k_is_in_isr)
kernel/libkernel.a(work_q.c.obj)
                              kernel/libkernel.a(system_work_q.c.obj) (k_work_q_start)
kernel/libkernel.a(poll.c.obj)
                              kernel/libkernel.a(queue.c.obj) (k_poll_event_init)
/opt/zephyr-sdk/sysroots/armv5-zephyr-eabi/usr/lib/arm-zephyr-eabi/6.2.0/armv7e-m/libgcc.a(_lshrdi3.o)
                              lib/libc/minimal/liblib__libc__minimal.a(prf.c.obj) (__aeabi_llsr)
/opt/zephyr-sdk/sysroots/armv5-zephyr-eabi/usr/lib/arm-zephyr-eabi/6.2.0/armv7e-m/libgcc.a(_ashldi3.o)
                              lib/libc/minimal/liblib__libc__minimal.a(prf.c.obj) (__aeabi_llsl)
/opt/zephyr-sdk/sysroots/armv5-zephyr-eabi/usr/lib/arm-zephyr-eabi/6.2.0/armv7e-m/libgcc.a(_aeabi_uldivmod.o)
                              subsys/bluetooth/controller/libsubsys__bluetooth__controller.a(ctrl.c.obj) (__aeabi_uldivmod)
/opt/zephyr-sdk/sysroots/armv5-zephyr-eabi/usr/lib/arm-zephyr-eabi/6.2.0/armv7e-m/libgcc.a(_popcountsi2.o)
                              drivers/gpio/libdrivers__gpio.a(gpio_nrf5.c.obj) (__popcountsi2)
/opt/zephyr-sdk/sysroots/armv5-zephyr-eabi/usr/lib/arm-zephyr-eabi/6.2.0/armv7e-m/libgcc.a(_udivmoddi4.o)
                              /opt/zephyr-sdk/sysroots/armv5-zephyr-eabi/usr/lib/arm-zephyr-eabi/6.2.0/armv7e-m/libgcc.a(_aeabi_uldivmod.o) (__udivmoddi4)
/opt/zephyr-sdk/sysroots/armv5-zephyr-eabi/usr/lib/arm-zephyr-eabi/6.2.0/armv7e-m/libgcc.a(_dvmd_tls.o)
                              /opt/zephyr-sdk/sysroots/armv5-zephyr-eabi/usr/lib/arm-zephyr-eabi/6.2.0/armv7e-m/libgcc.a(_aeabi_uldivmod.o) (__aeabi_ldiv0)

Allocating common symbols
Common symbol       size              file

_sys_pm_idle_exit_notify
                    0x1               kernel/libkernel.a(idle.c.obj)
wl_anon             0x1               subsys/bluetooth/controller/libsubsys__bluetooth__controller.a(ll_filter.c.obj)
_handling_timeouts  0x4               kernel/libkernel.a(sys_clock.c.obj)
recv_thread_data    0x70              subsys/bluetooth/controller/libsubsys__bluetooth__controller.a(hci_driver.c.obj)
_time_slice_elapsed
                    0x4               kernel/libkernel.a(sys_clock.c.obj)
_kernel             0x2c              kernel/libkernel.a(sched.c.obj)
_sys_clock_tick_count
                    0x8               kernel/libkernel.a(sys_clock.c.obj)
k_sys_work_q        0x80              kernel/libkernel.a(system_work_q.c.obj)
prio_recv_thread_data
                    0x70              subsys/bluetooth/controller/libsubsys__bluetooth__controller.a(hci_driver.c.obj)

Discarded input sections

 .text          0x0000000000000000        0x0 CMakeFiles/kernel_elf.dir/misc/empty_file.c.obj
 .data          0x0000000000000000        0x0 CMakeFiles/kernel_elf.dir/misc/empty_file.c.obj
 .bss           0x0000000000000000        0x0 CMakeFiles/kernel_elf.dir/misc/empty_file.c.obj
 .debug_line    0x0000000000000000        0x0 CMakeFiles/kernel_elf.dir/misc/empty_file.c.obj
 .debug_str     0x0000000000000000      0x11a CMakeFiles/kernel_elf.dir/misc/empty_file.c.obj
 .comment       0x0000000000000000       0x12 CMakeFiles/kernel_elf.dir/misc/empty_file.c.obj
 .ARM.attributes
                0x0000000000000000       0x33 CMakeFiles/kernel_elf.dir/misc/empty_file.c.obj
 .text          0x0000000000000000        0x0 CMakeFiles/kernel_elf.dir/isr_tables.c.obj
 .data          0x0000000000000000        0x0 CMakeFiles/kernel_elf.dir/isr_tables.c.obj
 .bss           0x0000000000000000        0x0 CMakeFiles/kernel_elf.dir/isr_tables.c.obj
 .text          0x0000000000000000        0x0 ../libapp.a(main.c.obj)
 .data          0x0000000000000000        0x0 ../libapp.a(main.c.obj)
 .bss           0x0000000000000000        0x0 ../libapp.a(main.c.obj)
 .text          0x0000000000000000        0x0 libzephyr.a(isr_tables.c.obj)
 .data          0x0000000000000000        0x0 libzephyr.a(isr_tables.c.obj)
 .bss           0x0000000000000000        0x0 libzephyr.a(isr_tables.c.obj)
 .text.isr_tables_syms
                0x0000000000000000        0x2 libzephyr.a(isr_tables.c.obj)
 .text          0x0000000000000000        0x0 libzephyr.a(mpu_regions.c.obj)
 .data          0x0000000000000000        0x0 libzephyr.a(mpu_regions.c.obj)
 .bss           0x0000000000000000        0x0 libzephyr.a(mpu_regions.c.obj)
 .text          0x0000000000000000        0x0 libzephyr.a(power.c.obj)
 .data          0x0000000000000000        0x0 libzephyr.a(power.c.obj)
 .bss           0x0000000000000000        0x0 libzephyr.a(power.c.obj)
 .text._sys_soc_set_power_state
                0x0000000000000000       0x58 libzephyr.a(power.c.obj)
 .text._sys_soc_power_state_post_ops
                0x0000000000000000       0x34 libzephyr.a(power.c.obj)
 .rodata.__func__.9194
                0x0000000000000000       0x19 libzephyr.a(power.c.obj)
 .rodata.__func__.9202
                0x0000000000000000       0x1e libzephyr.a(power.c.obj)
 .rodata._sys_soc_set_power_state.str1.1
                0x0000000000000000       0x33 libzephyr.a(power.c.obj)
 .debug_info    0x0000000000000000      0xc64 libzephyr.a(power.c.obj)
 .debug_abbrev  0x0000000000000000      0x301 libzephyr.a(power.c.obj)
 .debug_loc     0x0000000000000000       0x8f libzephyr.a(power.c.obj)
 .debug_aranges
                0x0000000000000000       0x28 libzephyr.a(power.c.obj)
 .debug_ranges  0x0000000000000000       0x30 libzephyr.a(power.c.obj)
 .debug_line    0x0000000000000000      0x3c7 libzephyr.a(power.c.obj)
 .debug_str     0x0000000000000000      0x8b7 libzephyr.a(power.c.obj)
 .comment       0x0000000000000000       0x12 libzephyr.a(power.c.obj)
 .debug_frame   0x0000000000000000       0x50 libzephyr.a(power.c.obj)
 .ARM.attributes
                0x0000000000000000       0x33 libzephyr.a(power.c.obj)
 .text          0x0000000000000000        0x0 libzephyr.a(soc.c.obj)
 .data          0x0000000000000000        0x0 libzephyr.a(soc.c.obj)
 .bss           0x0000000000000000        0x0 libzephyr.a(soc.c.obj)
 .text          0x0000000000000000        0x0 libzephyr.a(thread_entry.c.obj)
 .data          0x0000000000000000        0x0 libzephyr.a(thread_entry.c.obj)
 .bss           0x0000000000000000        0x0 libzephyr.a(thread_entry.c.obj)
 .text          0x0000000000000000        0x0 libzephyr.a(crc16_sw.c.obj)
 .data          0x0000000000000000        0x0 libzephyr.a(crc16_sw.c.obj)
 .bss           0x0000000000000000        0x0 libzephyr.a(crc16_sw.c.obj)
 .text.crc16    0x0000000000000000       0x54 libzephyr.a(crc16_sw.c.obj)
 .text.crc16_ccitt
                0x0000000000000000       0x26 libzephyr.a(crc16_sw.c.obj)
 .text.crc16_itu_t
                0x0000000000000000       0x2c libzephyr.a(crc16_sw.c.obj)
 .debug_info    0x0000000000000000      0x1eb libzephyr.a(crc16_sw.c.obj)
 .debug_abbrev  0x0000000000000000       0xda libzephyr.a(crc16_sw.c.obj)
 .debug_loc     0x0000000000000000      0x21e libzephyr.a(crc16_sw.c.obj)
 .debug_aranges
                0x0000000000000000       0x30 libzephyr.a(crc16_sw.c.obj)
 .debug_ranges  0x0000000000000000       0x40 libzephyr.a(crc16_sw.c.obj)
 .debug_line    0x0000000000000000      0x187 libzephyr.a(crc16_sw.c.obj)
 .debug_str     0x0000000000000000      0x1e7 libzephyr.a(crc16_sw.c.obj)
 .comment       0x0000000000000000       0x12 libzephyr.a(crc16_sw.c.obj)
 .debug_frame   0x0000000000000000       0x58 libzephyr.a(crc16_sw.c.obj)
 .ARM.attributes
                0x0000000000000000       0x33 libzephyr.a(crc16_sw.c.obj)
 .text          0x0000000000000000        0x0 libzephyr.a(crc8_sw.c.obj)
 .data          0x0000000000000000        0x0 libzephyr.a(crc8_sw.c.obj)
 .bss           0x0000000000000000        0x0 libzephyr.a(crc8_sw.c.obj)
 .text.crc8_ccitt
                0x0000000000000000       0x2c libzephyr.a(crc8_sw.c.obj)
 .rodata.crc8_ccitt_small_table
                0x0000000000000000       0x10 libzephyr.a(crc8_sw.c.obj)
 .debug_info    0x0000000000000000      0x10b libzephyr.a(crc8_sw.c.obj)
 .debug_abbrev  0x0000000000000000       0xa5 libzephyr.a(crc8_sw.c.obj)
 .debug_loc     0x0000000000000000       0xdf libzephyr.a(crc8_sw.c.obj)
 .debug_aranges
                0x0000000000000000       0x20 libzephyr.a(crc8_sw.c.obj)
 .debug_ranges  0x0000000000000000       0x10 libzephyr.a(crc8_sw.c.obj)
 .debug_line    0x0000000000000000      0x123 libzephyr.a(crc8_sw.c.obj)
 .debug_str     0x0000000000000000      0x1ba libzephyr.a(crc8_sw.c.obj)
 .comment       0x0000000000000000       0x12 libzephyr.a(crc8_sw.c.obj)
 .debug_frame   0x0000000000000000       0x28 libzephyr.a(crc8_sw.c.obj)
 .ARM.attributes
                0x0000000000000000       0x33 libzephyr.a(crc8_sw.c.obj)
 .text          0x0000000000000000        0x0 libzephyr.a(mempool.c.obj)
 .data          0x0000000000000000        0x0 libzephyr.a(mempool.c.obj)
 .bss           0x0000000000000000        0x0 libzephyr.a(mempool.c.obj)
 .text.sys_mem_pool_alloc
                0x0000000000000000       0x52 libzephyr.a(mempool.c.obj)
 .text.sys_mem_pool_free
                0x0000000000000000       0x34 libzephyr.a(mempool.c.obj)
 .text          0x0000000000000000        0x0 libzephyr.a(rb.c.obj)
 .data          0x0000000000000000        0x0 libzephyr.a(rb.c.obj)
 .bss           0x0000000000000000        0x0 libzephyr.a(rb.c.obj)
 .text.set_child
                0x0000000000000000       0x12 libzephyr.a(rb.c.obj)
 .text.find_and_stack
                0x0000000000000000       0x38 libzephyr.a(rb.c.obj)
 .text.rotate   0x0000000000000000       0x92 libzephyr.a(rb.c.obj)
 .text.fix_missing_black
                0x0000000000000000      0x170 libzephyr.a(rb.c.obj)
 .text.stack_left_limb
                0x0000000000000000       0x36 libzephyr.a(rb.c.obj)
 .text._rb_get_minmax
                0x0000000000000000       0x18 libzephyr.a(rb.c.obj)
 .text.rb_insert
                0x0000000000000000      0x138 libzephyr.a(rb.c.obj)
 .text.rb_remove
                0x0000000000000000      0x1b8 libzephyr.a(rb.c.obj)
 .text._rb_walk
                0x0000000000000000       0x24 libzephyr.a(rb.c.obj)
 .text._rb_child
                0x0000000000000000        0xe libzephyr.a(rb.c.obj)
 .text._rb_is_black
                0x0000000000000000        0x8 libzephyr.a(rb.c.obj)
 .text.rb_contains
                0x0000000000000000       0x2c libzephyr.a(rb.c.obj)
 .text._rb_foreach_next
                0x0000000000000000       0x56 libzephyr.a(rb.c.obj)
 .debug_info    0x0000000000000000     0x1f4e libzephyr.a(rb.c.obj)
 .debug_abbrev  0x0000000000000000      0x4d3 libzephyr.a(rb.c.obj)
 .debug_loc     0x0000000000000000     0x1426 libzephyr.a(rb.c.obj)
 .debug_aranges
                0x0000000000000000       0x80 libzephyr.a(rb.c.obj)
 .debug_ranges  0x0000000000000000      0x308 libzephyr.a(rb.c.obj)
 .debug_line    0x0000000000000000      0x61b libzephyr.a(rb.c.obj)
 .debug_str     0x0000000000000000      0x722 libzephyr.a(rb.c.obj)
 .comment       0x0000000000000000       0x12 libzephyr.a(rb.c.obj)
 .debug_frame   0x0000000000000000      0x1bc libzephyr.a(rb.c.obj)
 .ARM.attributes
                0x0000000000000000       0x33 libzephyr.a(rb.c.obj)
 .text          0x0000000000000000        0x0 libzephyr.a(printk.c.obj)
 .data          0x0000000000000000        0x0 libzephyr.a(printk.c.obj)
 .bss           0x0000000000000000        0x0 libzephyr.a(printk.c.obj)
 .text.__printk_get_hook
                0x0000000000000000        0xc libzephyr.a(printk.c.obj)
 .text._impl_k_str_out
                0x0000000000000000       0x1c libzephyr.a(printk.c.obj)
 .text.vsnprintk
                0x0000000000000000       0x28 libzephyr.a(printk.c.obj)
 .text          0x0000000000000000        0x0 libzephyr.a(configs.c.obj)
 .data          0x0000000000000000        0x0 libzephyr.a(configs.c.obj)
 .bss           0x0000000000000000        0x0 libzephyr.a(configs.c.obj)
 .text          0x0000000000000000        0x0 libzephyr.a(nrfx_glue.c.obj)
 .data          0x0000000000000000        0x0 libzephyr.a(nrfx_glue.c.obj)
 .bss           0x0000000000000000        0x0 libzephyr.a(nrfx_glue.c.obj)
 .text.nrfx_isr
                0x0000000000000000        0x2 libzephyr.a(nrfx_glue.c.obj)
 .debug_info    0x0000000000000000      0x695 libzephyr.a(nrfx_glue.c.obj)
 .debug_abbrev  0x0000000000000000      0x197 libzephyr.a(nrfx_glue.c.obj)
 .debug_loc     0x0000000000000000       0x21 libzephyr.a(nrfx_glue.c.obj)
 .debug_aranges
                0x0000000000000000       0x20 libzephyr.a(nrfx_glue.c.obj)
 .debug_ranges  0x0000000000000000       0x10 libzephyr.a(nrfx_glue.c.obj)
 .debug_line    0x0000000000000000      0x32c libzephyr.a(nrfx_glue.c.obj)
 .debug_str     0x0000000000000000      0x599 libzephyr.a(nrfx_glue.c.obj)
 .comment       0x0000000000000000       0x12 libzephyr.a(nrfx_glue.c.obj)
 .debug_frame   0x0000000000000000       0x20 libzephyr.a(nrfx_glue.c.obj)
 .ARM.attributes
                0x0000000000000000       0x33 libzephyr.a(nrfx_glue.c.obj)
 .text          0x0000000000000000        0x0 libzephyr.a(sys_log.c.obj)
 .data          0x0000000000000000        0x0 libzephyr.a(sys_log.c.obj)
 .bss           0x0000000000000000        0x0 libzephyr.a(sys_log.c.obj)
 .text.syslog_hook_default
                0x0000000000000000        0x6 libzephyr.a(sys_log.c.obj)
 .text.syslog_hook_install
                0x0000000000000000        0xc libzephyr.a(sys_log.c.obj)
 .data.syslog_hook
                0x0000000000000000        0x4 libzephyr.a(sys_log.c.obj)
 .debug_info    0x0000000000000000       0x9b libzephyr.a(sys_log.c.obj)
 .debug_abbrev  0x0000000000000000       0xa3 libzephyr.a(sys_log.c.obj)
 .debug_aranges
                0x0000000000000000       0x28 libzephyr.a(sys_log.c.obj)
 .debug_ranges  0x0000000000000000       0x18 libzephyr.a(sys_log.c.obj)
 .debug_line    0x0000000000000000       0x78 libzephyr.a(sys_log.c.obj)
 .debug_str     0x0000000000000000      0x15f libzephyr.a(sys_log.c.obj)
 .comment       0x0000000000000000       0x12 libzephyr.a(sys_log.c.obj)
 .debug_frame   0x0000000000000000       0x44 libzephyr.a(sys_log.c.obj)
 .ARM.attributes
                0x0000000000000000       0x33 libzephyr.a(sys_log.c.obj)
 .text          0x0000000000000000        0x0 libzephyr.a(rand32_entropy_device.c.obj)
 .data          0x0000000000000000        0x0 libzephyr.a(rand32_entropy_device.c.obj)
 .bss           0x0000000000000000        0x0 libzephyr.a(rand32_entropy_device.c.obj)
 .text          0x0000000000000000        0x0 libzephyr.a(uart_console.c.obj)
 .data          0x0000000000000000        0x0 libzephyr.a(uart_console.c.obj)
 .bss           0x0000000000000000        0x0 libzephyr.a(uart_console.c.obj)
 .text          0x0000000000000000        0x0 libzephyr.a(nrf5_power_clock.c.obj)
 .data          0x0000000000000000        0x0 libzephyr.a(nrf5_power_clock.c.obj)
 .bss           0x0000000000000000        0x0 libzephyr.a(nrf5_power_clock.c.obj)
 .text          0x0000000000000000        0x0 libzephyr.a(sys_clock_init.c.obj)
 .data          0x0000000000000000        0x0 libzephyr.a(sys_clock_init.c.obj)
 .bss           0x0000000000000000        0x0 libzephyr.a(sys_clock_init.c.obj)
 .text          0x0000000000000000        0x0 libzephyr.a(nrf_rtc_timer.c.obj)
 .data          0x0000000000000000        0x0 libzephyr.a(nrf_rtc_timer.c.obj)
 .bss           0x0000000000000000        0x0 libzephyr.a(nrf_rtc_timer.c.obj)
 .text          0x0000000000000000        0x0 arch/arm/core/libarch__arm__core.a(exc_exit.S.obj)
 .data          0x0000000000000000        0x0 arch/arm/core/libarch__arm__core.a(exc_exit.S.obj)
 .bss           0x0000000000000000        0x0 arch/arm/core/libarch__arm__core.a(exc_exit.S.obj)
 .text          0x0000000000000000        0x0 arch/arm/core/libarch__arm__core.a(irq_init.c.obj)
 .data          0x0000000000000000        0x0 arch/arm/core/libarch__arm__core.a(irq_init.c.obj)
 .bss           0x0000000000000000        0x0 arch/arm/core/libarch__arm__core.a(irq_init.c.obj)
 .text          0x0000000000000000        0x0 arch/arm/core/libarch__arm__core.a(swap.c.obj)
 .data          0x0000000000000000        0x0 arch/arm/core/libarch__arm__core.a(swap.c.obj)
 .bss           0x0000000000000000        0x0 arch/arm/core/libarch__arm__core.a(swap.c.obj)
 .text          0x0000000000000000        0x0 arch/arm/core/libarch__arm__core.a(swap_helper.S.obj)
 .data          0x0000000000000000        0x0 arch/arm/core/libarch__arm__core.a(swap_helper.S.obj)
 .bss           0x0000000000000000        0x0 arch/arm/core/libarch__arm__core.a(swap_helper.S.obj)
 .text          0x0000000000000000        0x0 arch/arm/core/libarch__arm__core.a(fault.c.obj)
 .data          0x0000000000000000        0x0 arch/arm/core/libarch__arm__core.a(fault.c.obj)
 .bss           0x0000000000000000        0x0 arch/arm/core/libarch__arm__core.a(fault.c.obj)
 .text          0x0000000000000000        0x0 arch/arm/core/libarch__arm__core.a(irq_manage.c.obj)
 .data          0x0000000000000000        0x0 arch/arm/core/libarch__arm__core.a(irq_manage.c.obj)
 .bss           0x0000000000000000        0x0 arch/arm/core/libarch__arm__core.a(irq_manage.c.obj)
 .text          0x0000000000000000        0x0 arch/arm/core/libarch__arm__core.a(thread.c.obj)
 .data          0x0000000000000000        0x0 arch/arm/core/libarch__arm__core.a(thread.c.obj)
 .bss           0x0000000000000000        0x0 arch/arm/core/libarch__arm__core.a(thread.c.obj)
 .text          0x0000000000000000        0x0 arch/arm/core/libarch__arm__core.a(cpu_idle.S.obj)
 .data          0x0000000000000000        0x0 arch/arm/core/libarch__arm__core.a(cpu_idle.S.obj)
 .bss           0x0000000000000000        0x0 arch/arm/core/libarch__arm__core.a(cpu_idle.S.obj)
 .text._NanoIdleValGet
                0x0000000000000000        0xc arch/arm/core/libarch__arm__core.a(cpu_idle.S.obj)
 .text._NanoIdleValClear
                0x0000000000000000        0xc arch/arm/core/libarch__arm__core.a(cpu_idle.S.obj)
 .text.k_cpu_atomic_idle
                0x0000000000000000       0x14 arch/arm/core/libarch__arm__core.a(cpu_idle.S.obj)
 .text          0x0000000000000000        0x0 arch/arm/core/libarch__arm__core.a(fault_s.S.obj)
 .data          0x0000000000000000        0x0 arch/arm/core/libarch__arm__core.a(fault_s.S.obj)
 .bss           0x0000000000000000        0x0 arch/arm/core/libarch__arm__core.a(fault_s.S.obj)
 .text          0x0000000000000000        0x0 arch/arm/core/libarch__arm__core.a(fatal.c.obj)
 .data          0x0000000000000000        0x0 arch/arm/core/libarch__arm__core.a(fatal.c.obj)
 .bss           0x0000000000000000        0x0 arch/arm/core/libarch__arm__core.a(fatal.c.obj)
 .text._arch_syscall_oops
                0x0000000000000000       0x1a arch/arm/core/libarch__arm__core.a(fatal.c.obj)
 .text          0x0000000000000000        0x0 arch/arm/core/libarch__arm__core.a(sys_fatal_error_handler.c.obj)
 .data          0x0000000000000000        0x0 arch/arm/core/libarch__arm__core.a(sys_fatal_error_handler.c.obj)
 .bss           0x0000000000000000        0x0 arch/arm/core/libarch__arm__core.a(sys_fatal_error_handler.c.obj)
 .text          0x0000000000000000        0x0 arch/arm/core/libarch__arm__core.a(thread_abort.c.obj)
 .data          0x0000000000000000        0x0 arch/arm/core/libarch__arm__core.a(thread_abort.c.obj)
 .bss           0x0000000000000000        0x0 arch/arm/core/libarch__arm__core.a(thread_abort.c.obj)
 .text          0x0000000000000000        0x0 arch/arm/core/libarch__arm__core.a(isr_wrapper.S.obj)
 .data          0x0000000000000000        0x0 arch/arm/core/libarch__arm__core.a(isr_wrapper.S.obj)
 .bss           0x0000000000000000        0x0 arch/arm/core/libarch__arm__core.a(isr_wrapper.S.obj)
 .text          0x0000000000000000        0x0 arch/arm/core/cortex_m/libarch__arm__core__cortex_m.a(vector_table.S.obj)
 .data          0x0000000000000000        0x0 arch/arm/core/cortex_m/libarch__arm__core__cortex_m.a(vector_table.S.obj)
 .bss           0x0000000000000000        0x0 arch/arm/core/cortex_m/libarch__arm__core__cortex_m.a(vector_table.S.obj)
 .text          0x0000000000000000        0x0 arch/arm/core/cortex_m/libarch__arm__core__cortex_m.a(reset.S.obj)
 .data          0x0000000000000000        0x0 arch/arm/core/cortex_m/libarch__arm__core__cortex_m.a(reset.S.obj)
 .bss           0x0000000000000000        0x0 arch/arm/core/cortex_m/libarch__arm__core__cortex_m.a(reset.S.obj)
 .text          0x0000000000000000        0x0 arch/arm/core/cortex_m/libarch__arm__core__cortex_m.a(nmi_on_reset.S.obj)
 .data          0x0000000000000000        0x0 arch/arm/core/cortex_m/libarch__arm__core__cortex_m.a(nmi_on_reset.S.obj)
 .bss           0x0000000000000000        0x0 arch/arm/core/cortex_m/libarch__arm__core__cortex_m.a(nmi_on_reset.S.obj)
 .text          0x0000000000000000        0x0 arch/arm/core/cortex_m/libarch__arm__core__cortex_m.a(prep_c.c.obj)
 .data          0x0000000000000000        0x0 arch/arm/core/cortex_m/libarch__arm__core__cortex_m.a(prep_c.c.obj)
 .bss           0x0000000000000000        0x0 arch/arm/core/cortex_m/libarch__arm__core__cortex_m.a(prep_c.c.obj)
 .text          0x0000000000000000        0x0 arch/arm/core/cortex_m/libarch__arm__core__cortex_m.a(scb.c.obj)
 .data          0x0000000000000000        0x0 arch/arm/core/cortex_m/libarch__arm__core__cortex_m.a(scb.c.obj)
 .bss           0x0000000000000000        0x0 arch/arm/core/cortex_m/libarch__arm__core__cortex_m.a(scb.c.obj)
 .text.sys_arch_reboot
                0x0000000000000000       0x24 arch/arm/core/cortex_m/libarch__arm__core__cortex_m.a(scb.c.obj)
 .debug_info    0x0000000000000000      0x8ae arch/arm/core/cortex_m/libarch__arm__core__cortex_m.a(scb.c.obj)
 .debug_abbrev  0x0000000000000000      0x1dc arch/arm/core/cortex_m/libarch__arm__core__cortex_m.a(scb.c.obj)
 .debug_aranges
                0x0000000000000000       0x20 arch/arm/core/cortex_m/libarch__arm__core__cortex_m.a(scb.c.obj)
 .debug_ranges  0x0000000000000000       0x10 arch/arm/core/cortex_m/libarch__arm__core__cortex_m.a(scb.c.obj)
 .debug_line    0x0000000000000000      0x315 arch/arm/core/cortex_m/libarch__arm__core__cortex_m.a(scb.c.obj)
 .debug_str     0x0000000000000000      0x680 arch/arm/core/cortex_m/libarch__arm__core__cortex_m.a(scb.c.obj)
 .comment       0x0000000000000000       0x12 arch/arm/core/cortex_m/libarch__arm__core__cortex_m.a(scb.c.obj)
 .debug_frame   0x0000000000000000       0x20 arch/arm/core/cortex_m/libarch__arm__core__cortex_m.a(scb.c.obj)
 .ARM.attributes
                0x0000000000000000       0x33 arch/arm/core/cortex_m/libarch__arm__core__cortex_m.a(scb.c.obj)
 .text          0x0000000000000000        0x0 arch/arm/core/cortex_m/libarch__arm__core__cortex_m.a(nmi.c.obj)
 .data          0x0000000000000000        0x0 arch/arm/core/cortex_m/libarch__arm__core__cortex_m.a(nmi.c.obj)
 .bss           0x0000000000000000        0x0 arch/arm/core/cortex_m/libarch__arm__core__cortex_m.a(nmi.c.obj)
 .text          0x0000000000000000        0x0 arch/arm/core/cortex_m/libarch__arm__core__cortex_m.a(exc_manage.c.obj)
 .data          0x0000000000000000        0x0 arch/arm/core/cortex_m/libarch__arm__core__cortex_m.a(exc_manage.c.obj)
 .bss           0x0000000000000000        0x0 arch/arm/core/cortex_m/libarch__arm__core__cortex_m.a(exc_manage.c.obj)
 .text.sys_exc_esf_dump
                0x0000000000000000       0x68 arch/arm/core/cortex_m/libarch__arm__core__cortex_m.a(exc_manage.c.obj)
 .rodata.sys_exc_esf_dump.str1.1
                0x0000000000000000       0x65 arch/arm/core/cortex_m/libarch__arm__core__cortex_m.a(exc_manage.c.obj)
 .debug_info    0x0000000000000000      0x834 arch/arm/core/cortex_m/libarch__arm__core__cortex_m.a(exc_manage.c.obj)
 .debug_abbrev  0x0000000000000000      0x1cf arch/arm/core/cortex_m/libarch__arm__core__cortex_m.a(exc_manage.c.obj)
 .debug_loc     0x0000000000000000       0x2c arch/arm/core/cortex_m/libarch__arm__core__cortex_m.a(exc_manage.c.obj)
 .debug_aranges
                0x0000000000000000       0x20 arch/arm/core/cortex_m/libarch__arm__core__cortex_m.a(exc_manage.c.obj)
 .debug_ranges  0x0000000000000000       0x10 arch/arm/core/cortex_m/libarch__arm__core__cortex_m.a(exc_manage.c.obj)
 .debug_line    0x0000000000000000      0x275 arch/arm/core/cortex_m/libarch__arm__core__cortex_m.a(exc_manage.c.obj)
 .debug_str     0x0000000000000000      0x58f arch/arm/core/cortex_m/libarch__arm__core__cortex_m.a(exc_manage.c.obj)
 .comment       0x0000000000000000       0x12 arch/arm/core/cortex_m/libarch__arm__core__cortex_m.a(exc_manage.c.obj)
 .debug_frame   0x0000000000000000       0x2c arch/arm/core/cortex_m/libarch__arm__core__cortex_m.a(exc_manage.c.obj)
 .ARM.attributes
                0x0000000000000000       0x33 arch/arm/core/cortex_m/libarch__arm__core__cortex_m.a(exc_manage.c.obj)
 .text          0x0000000000000000        0x0 arch/arm/core/cortex_m/mpu/libarch__arm__core__cortex_m__mpu.a(arm_core_mpu.c.obj)
 .data          0x0000000000000000        0x0 arch/arm/core/cortex_m/mpu/libarch__arm__core__cortex_m__mpu.a(arm_core_mpu.c.obj)
 .bss           0x0000000000000000        0x0 arch/arm/core/cortex_m/mpu/libarch__arm__core__cortex_m__mpu.a(arm_core_mpu.c.obj)
 .debug_info    0x0000000000000000      0x855 arch/arm/core/cortex_m/mpu/libarch__arm__core__cortex_m__mpu.a(arm_core_mpu.c.obj)
 .debug_abbrev  0x0000000000000000      0x17c arch/arm/core/cortex_m/mpu/libarch__arm__core__cortex_m__mpu.a(arm_core_mpu.c.obj)
 .debug_aranges
                0x0000000000000000       0x18 arch/arm/core/cortex_m/mpu/libarch__arm__core__cortex_m__mpu.a(arm_core_mpu.c.obj)
 .debug_line    0x0000000000000000      0x385 arch/arm/core/cortex_m/mpu/libarch__arm__core__cortex_m__mpu.a(arm_core_mpu.c.obj)
 .debug_str     0x0000000000000000      0x6e5 arch/arm/core/cortex_m/mpu/libarch__arm__core__cortex_m__mpu.a(arm_core_mpu.c.obj)
 .comment       0x0000000000000000       0x12 arch/arm/core/cortex_m/mpu/libarch__arm__core__cortex_m__mpu.a(arm_core_mpu.c.obj)
 .ARM.attributes
                0x0000000000000000       0x33 arch/arm/core/cortex_m/mpu/libarch__arm__core__cortex_m__mpu.a(arm_core_mpu.c.obj)
 .text          0x0000000000000000        0x0 arch/arm/core/cortex_m/mpu/libarch__arm__core__cortex_m__mpu.a(arm_mpu.c.obj)
 .data          0x0000000000000000        0x0 arch/arm/core/cortex_m/mpu/libarch__arm__core__cortex_m__mpu.a(arm_mpu.c.obj)
 .bss           0x0000000000000000        0x0 arch/arm/core/cortex_m/mpu/libarch__arm__core__cortex_m__mpu.a(arm_mpu.c.obj)
 .text.arm_core_mpu_enable
                0x0000000000000000        0xc arch/arm/core/cortex_m/mpu/libarch__arm__core__cortex_m__mpu.a(arm_mpu.c.obj)
 .text.arm_core_mpu_disable
                0x0000000000000000        0xc arch/arm/core/cortex_m/mpu/libarch__arm__core__cortex_m__mpu.a(arm_mpu.c.obj)
 .text.arm_core_mpu_configure
                0x0000000000000000       0xb0 arch/arm/core/cortex_m/mpu/libarch__arm__core__cortex_m__mpu.a(arm_mpu.c.obj)
 .text          0x0000000000000000        0x0 lib/libc/minimal/liblib__libc__minimal.a(atoi.c.obj)
 .data          0x0000000000000000        0x0 lib/libc/minimal/liblib__libc__minimal.a(atoi.c.obj)
 .bss           0x0000000000000000        0x0 lib/libc/minimal/liblib__libc__minimal.a(atoi.c.obj)
 .text.atoi     0x0000000000000000       0x48 lib/libc/minimal/liblib__libc__minimal.a(atoi.c.obj)
 .debug_info    0x0000000000000000       0xe5 lib/libc/minimal/liblib__libc__minimal.a(atoi.c.obj)
 .debug_abbrev  0x0000000000000000       0xe2 lib/libc/minimal/liblib__libc__minimal.a(atoi.c.obj)
 .debug_loc     0x0000000000000000       0xaa lib/libc/minimal/liblib__libc__minimal.a(atoi.c.obj)
 .debug_aranges
                0x0000000000000000       0x20 lib/libc/minimal/liblib__libc__minimal.a(atoi.c.obj)
 .debug_ranges  0x0000000000000000       0x10 lib/libc/minimal/liblib__libc__minimal.a(atoi.c.obj)
 .debug_line    0x0000000000000000       0xdd lib/libc/minimal/liblib__libc__minimal.a(atoi.c.obj)
 .debug_str     0x0000000000000000      0x155 lib/libc/minimal/liblib__libc__minimal.a(atoi.c.obj)
 .comment       0x0000000000000000       0x12 lib/libc/minimal/liblib__libc__minimal.a(atoi.c.obj)
 .debug_frame   0x0000000000000000       0x28 lib/libc/minimal/liblib__libc__minimal.a(atoi.c.obj)
 .ARM.attributes
                0x0000000000000000       0x33 lib/libc/minimal/liblib__libc__minimal.a(atoi.c.obj)
 .text          0x0000000000000000        0x0 lib/libc/minimal/liblib__libc__minimal.a(strtol.c.obj)
 .data          0x0000000000000000        0x0 lib/libc/minimal/liblib__libc__minimal.a(strtol.c.obj)
 .bss           0x0000000000000000        0x0 lib/libc/minimal/liblib__libc__minimal.a(strtol.c.obj)
 .text.strtol   0x0000000000000000       0xf2 lib/libc/minimal/liblib__libc__minimal.a(strtol.c.obj)
 .debug_info    0x0000000000000000      0x1ec lib/libc/minimal/liblib__libc__minimal.a(strtol.c.obj)
 .debug_abbrev  0x0000000000000000       0xde lib/libc/minimal/liblib__libc__minimal.a(strtol.c.obj)
 .debug_loc     0x0000000000000000      0x345 lib/libc/minimal/liblib__libc__minimal.a(strtol.c.obj)
 .debug_aranges
                0x0000000000000000       0x20 lib/libc/minimal/liblib__libc__minimal.a(strtol.c.obj)
 .debug_ranges  0x0000000000000000       0x10 lib/libc/minimal/liblib__libc__minimal.a(strtol.c.obj)
 .debug_line    0x0000000000000000      0x172 lib/libc/minimal/liblib__libc__minimal.a(strtol.c.obj)
 .debug_str     0x0000000000000000      0x1ab lib/libc/minimal/liblib__libc__minimal.a(strtol.c.obj)
 .comment       0x0000000000000000       0x12 lib/libc/minimal/liblib__libc__minimal.a(strtol.c.obj)
 .debug_frame   0x0000000000000000       0x34 lib/libc/minimal/liblib__libc__minimal.a(strtol.c.obj)
 .ARM.attributes
                0x0000000000000000       0x33 lib/libc/minimal/liblib__libc__minimal.a(strtol.c.obj)
 .text          0x0000000000000000        0x0 lib/libc/minimal/liblib__libc__minimal.a(strtoul.c.obj)
 .data          0x0000000000000000        0x0 lib/libc/minimal/liblib__libc__minimal.a(strtoul.c.obj)
 .bss           0x0000000000000000        0x0 lib/libc/minimal/liblib__libc__minimal.a(strtoul.c.obj)
 .text.strtoul  0x0000000000000000       0xf8 lib/libc/minimal/liblib__libc__minimal.a(strtoul.c.obj)
 .debug_info    0x0000000000000000      0x1e5 lib/libc/minimal/liblib__libc__minimal.a(strtoul.c.obj)
 .debug_abbrev  0x0000000000000000       0xde lib/libc/minimal/liblib__libc__minimal.a(strtoul.c.obj)
 .debug_loc     0x0000000000000000      0x35d lib/libc/minimal/liblib__libc__minimal.a(strtoul.c.obj)
 .debug_aranges
                0x0000000000000000       0x20 lib/libc/minimal/liblib__libc__minimal.a(strtoul.c.obj)
 .debug_ranges  0x0000000000000000       0x10 lib/libc/minimal/liblib__libc__minimal.a(strtoul.c.obj)
 .debug_line    0x0000000000000000      0x160 lib/libc/minimal/liblib__libc__minimal.a(strtoul.c.obj)
 .debug_str     0x0000000000000000      0x1a4 lib/libc/minimal/liblib__libc__minimal.a(strtoul.c.obj)
 .comment       0x0000000000000000       0x12 lib/libc/minimal/liblib__libc__minimal.a(strtoul.c.obj)
 .debug_frame   0x0000000000000000       0x30 lib/libc/minimal/liblib__libc__minimal.a(strtoul.c.obj)
 .ARM.attributes
                0x0000000000000000       0x33 lib/libc/minimal/liblib__libc__minimal.a(strtoul.c.obj)
 .text          0x0000000000000000        0x0 lib/libc/minimal/liblib__libc__minimal.a(strncasecmp.c.obj)
 .data          0x0000000000000000        0x0 lib/libc/minimal/liblib__libc__minimal.a(strncasecmp.c.obj)
 .bss           0x0000000000000000        0x0 lib/libc/minimal/liblib__libc__minimal.a(strncasecmp.c.obj)
 .text.strncasecmp
                0x0000000000000000       0x2c lib/libc/minimal/liblib__libc__minimal.a(strncasecmp.c.obj)
 .rodata.charmap
                0x0000000000000000      0x100 lib/libc/minimal/liblib__libc__minimal.a(strncasecmp.c.obj)
 .debug_info    0x0000000000000000       0xda lib/libc/minimal/liblib__libc__minimal.a(strncasecmp.c.obj)
 .debug_abbrev  0x0000000000000000       0x91 lib/libc/minimal/liblib__libc__minimal.a(strncasecmp.c.obj)
 .debug_loc     0x0000000000000000       0xb7 lib/libc/minimal/liblib__libc__minimal.a(strncasecmp.c.obj)
 .debug_aranges
                0x0000000000000000       0x20 lib/libc/minimal/liblib__libc__minimal.a(strncasecmp.c.obj)
 .debug_ranges  0x0000000000000000       0x10 lib/libc/minimal/liblib__libc__minimal.a(strncasecmp.c.obj)
 .debug_line    0x0000000000000000       0x87 lib/libc/minimal/liblib__libc__minimal.a(strncasecmp.c.obj)
 .debug_str     0x0000000000000000      0x177 lib/libc/minimal/liblib__libc__minimal.a(strncasecmp.c.obj)
 .comment       0x0000000000000000       0x12 lib/libc/minimal/liblib__libc__minimal.a(strncasecmp.c.obj)
 .debug_frame   0x0000000000000000       0x2c lib/libc/minimal/liblib__libc__minimal.a(strncasecmp.c.obj)
 .ARM.attributes
                0x0000000000000000       0x33 lib/libc/minimal/liblib__libc__minimal.a(strncasecmp.c.obj)
 .text          0x0000000000000000        0x0 lib/libc/minimal/liblib__libc__minimal.a(strstr.c.obj)
 .data          0x0000000000000000        0x0 lib/libc/minimal/liblib__libc__minimal.a(strstr.c.obj)
 .bss           0x0000000000000000        0x0 lib/libc/minimal/liblib__libc__minimal.a(strstr.c.obj)
 .text.strstr   0x0000000000000000       0x36 lib/libc/minimal/liblib__libc__minimal.a(strstr.c.obj)
 .debug_info    0x0000000000000000       0xf7 lib/libc/minimal/liblib__libc__minimal.a(strstr.c.obj)
 .debug_abbrev  0x0000000000000000       0xd2 lib/libc/minimal/liblib__libc__minimal.a(strstr.c.obj)
 .debug_loc     0x0000000000000000       0xae lib/libc/minimal/liblib__libc__minimal.a(strstr.c.obj)
 .debug_aranges
                0x0000000000000000       0x20 lib/libc/minimal/liblib__libc__minimal.a(strstr.c.obj)
 .debug_ranges  0x0000000000000000       0x10 lib/libc/minimal/liblib__libc__minimal.a(strstr.c.obj)
 .debug_line    0x0000000000000000      0x13b lib/libc/minimal/liblib__libc__minimal.a(strstr.c.obj)
 .debug_str     0x0000000000000000      0x164 lib/libc/minimal/liblib__libc__minimal.a(strstr.c.obj)
 .comment       0x0000000000000000       0x12 lib/libc/minimal/liblib__libc__minimal.a(strstr.c.obj)
 .debug_frame   0x0000000000000000       0x30 lib/libc/minimal/liblib__libc__minimal.a(strstr.c.obj)
 .ARM.attributes
                0x0000000000000000       0x33 lib/libc/minimal/liblib__libc__minimal.a(strstr.c.obj)
 .text          0x0000000000000000        0x0 lib/libc/minimal/liblib__libc__minimal.a(string.c.obj)
 .data          0x0000000000000000        0x0 lib/libc/minimal/liblib__libc__minimal.a(string.c.obj)
 .bss           0x0000000000000000        0x0 lib/libc/minimal/liblib__libc__minimal.a(string.c.obj)
 .text.strncpy  0x0000000000000000       0x22 lib/libc/minimal/liblib__libc__minimal.a(string.c.obj)
 .text.strchr   0x0000000000000000       0x1e lib/libc/minimal/liblib__libc__minimal.a(string.c.obj)
 .text.strrchr  0x0000000000000000       0x1a lib/libc/minimal/liblib__libc__minimal.a(string.c.obj)
 .text.strlen   0x0000000000000000       0x10 lib/libc/minimal/liblib__libc__minimal.a(string.c.obj)
 .text.strncmp  0x0000000000000000       0x22 lib/libc/minimal/liblib__libc__minimal.a(string.c.obj)
 .text.strcat   0x0000000000000000       0x16 lib/libc/minimal/liblib__libc__minimal.a(string.c.obj)
 .text.strncat  0x0000000000000000       0x2a lib/libc/minimal/liblib__libc__minimal.a(string.c.obj)
 .text.memmove  0x0000000000000000       0x30 lib/libc/minimal/liblib__libc__minimal.a(string.c.obj)
 .text.memchr   0x0000000000000000       0x1e lib/libc/minimal/liblib__libc__minimal.a(string.c.obj)
 .text          0x0000000000000000        0x0 lib/libc/minimal/liblib__libc__minimal.a(prf.c.obj)
 .data          0x0000000000000000        0x0 lib/libc/minimal/liblib__libc__minimal.a(prf.c.obj)
 .bss           0x0000000000000000        0x0 lib/libc/minimal/liblib__libc__minimal.a(prf.c.obj)
 .text._to_x    0x0000000000000000       0x50 lib/libc/minimal/liblib__libc__minimal.a(prf.c.obj)
 .text._rlrshift
                0x0000000000000000       0x1e lib/libc/minimal/liblib__libc__minimal.a(prf.c.obj)
 .text._ldiv5   0x0000000000000000       0x60 lib/libc/minimal/liblib__libc__minimal.a(prf.c.obj)
 .text._get_digit
                0x0000000000000000       0x2e lib/libc/minimal/liblib__libc__minimal.a(prf.c.obj)
 .text._prf     0x0000000000000000      0x768 lib/libc/minimal/liblib__libc__minimal.a(prf.c.obj)
 .rodata._prf.str1.1
                0x0000000000000000        0xb lib/libc/minimal/liblib__libc__minimal.a(prf.c.obj)
 .rodata.shifts.3783
                0x0000000000000000        0x3 lib/libc/minimal/liblib__libc__minimal.a(prf.c.obj)
 .debug_info    0x0000000000000000      0xc51 lib/libc/minimal/liblib__libc__minimal.a(prf.c.obj)
 .debug_abbrev  0x0000000000000000      0x335 lib/libc/minimal/liblib__libc__minimal.a(prf.c.obj)
 .debug_loc     0x0000000000000000     0x1636 lib/libc/minimal/liblib__libc__minimal.a(prf.c.obj)
 .debug_aranges
                0x0000000000000000       0x40 lib/libc/minimal/liblib__libc__minimal.a(prf.c.obj)
 .debug_ranges  0x0000000000000000      0x120 lib/libc/minimal/liblib__libc__minimal.a(prf.c.obj)
 .debug_line    0x0000000000000000      0x46e lib/libc/minimal/liblib__libc__minimal.a(prf.c.obj)
 .debug_str     0x0000000000000000      0x3ea lib/libc/minimal/liblib__libc__minimal.a(prf.c.obj)
 .comment       0x0000000000000000       0x12 lib/libc/minimal/liblib__libc__minimal.a(prf.c.obj)
 .debug_frame   0x0000000000000000       0xb8 lib/libc/minimal/liblib__libc__minimal.a(prf.c.obj)
 .ARM.attributes
                0x0000000000000000       0x33 lib/libc/minimal/liblib__libc__minimal.a(prf.c.obj)
 .text          0x0000000000000000        0x0 lib/libc/minimal/liblib__libc__minimal.a(stdout_console.c.obj)
 .data          0x0000000000000000        0x0 lib/libc/minimal/liblib__libc__minimal.a(stdout_console.c.obj)
 .bss           0x0000000000000000        0x0 lib/libc/minimal/liblib__libc__minimal.a(stdout_console.c.obj)
 .text._stdout_hook_default
                0x0000000000000000        0x6 lib/libc/minimal/liblib__libc__minimal.a(stdout_console.c.obj)
 .text.__stdout_hook_install
                0x0000000000000000        0xc lib/libc/minimal/liblib__libc__minimal.a(stdout_console.c.obj)
 .text.fputc    0x0000000000000000       0x14 lib/libc/minimal/liblib__libc__minimal.a(stdout_console.c.obj)
 .text.fputs    0x0000000000000000       0x24 lib/libc/minimal/liblib__libc__minimal.a(stdout_console.c.obj)
 .text.fwrite   0x0000000000000000       0x48 lib/libc/minimal/liblib__libc__minimal.a(stdout_console.c.obj)
 .text.puts     0x0000000000000000       0x24 lib/libc/minimal/liblib__libc__minimal.a(stdout_console.c.obj)
 .data._stdout_hook
                0x0000000000000000        0x4 lib/libc/minimal/liblib__libc__minimal.a(stdout_console.c.obj)
 .debug_info    0x0000000000000000      0x247 lib/libc/minimal/liblib__libc__minimal.a(stdout_console.c.obj)
 .debug_abbrev  0x0000000000000000      0x155 lib/libc/minimal/liblib__libc__minimal.a(stdout_console.c.obj)
 .debug_loc     0x0000000000000000      0x20a lib/libc/minimal/liblib__libc__minimal.a(stdout_console.c.obj)
 .debug_aranges
                0x0000000000000000       0x48 lib/libc/minimal/liblib__libc__minimal.a(stdout_console.c.obj)
 .debug_ranges  0x0000000000000000       0x38 lib/libc/minimal/liblib__libc__minimal.a(stdout_console.c.obj)
 .debug_line    0x0000000000000000      0x1b7 lib/libc/minimal/liblib__libc__minimal.a(stdout_console.c.obj)
 .debug_str     0x0000000000000000      0x23f lib/libc/minimal/liblib__libc__minimal.a(stdout_console.c.obj)
 .comment       0x0000000000000000       0x12 lib/libc/minimal/liblib__libc__minimal.a(stdout_console.c.obj)
 .debug_frame   0x0000000000000000       0x98 lib/libc/minimal/liblib__libc__minimal.a(stdout_console.c.obj)
 .ARM.attributes
                0x0000000000000000       0x33 lib/libc/minimal/liblib__libc__minimal.a(stdout_console.c.obj)
 .text          0x0000000000000000        0x0 lib/libc/minimal/liblib__libc__minimal.a(sprintf.c.obj)
 .data          0x0000000000000000        0x0 lib/libc/minimal/liblib__libc__minimal.a(sprintf.c.obj)
 .bss           0x0000000000000000        0x0 lib/libc/minimal/liblib__libc__minimal.a(sprintf.c.obj)
 .text.sprintf_out
                0x0000000000000000       0x1a lib/libc/minimal/liblib__libc__minimal.a(sprintf.c.obj)
 .text.snprintf
                0x0000000000000000       0x30 lib/libc/minimal/liblib__libc__minimal.a(sprintf.c.obj)
 .text.sprintf  0x0000000000000000       0x30 lib/libc/minimal/liblib__libc__minimal.a(sprintf.c.obj)
 .text.vsnprintf
                0x0000000000000000       0x24 lib/libc/minimal/liblib__libc__minimal.a(sprintf.c.obj)
 .text.vsprintf
                0x0000000000000000       0x28 lib/libc/minimal/liblib__libc__minimal.a(sprintf.c.obj)
 .debug_info    0x0000000000000000      0x325 lib/libc/minimal/liblib__libc__minimal.a(sprintf.c.obj)
 .debug_abbrev  0x0000000000000000      0x13d lib/libc/minimal/liblib__libc__minimal.a(sprintf.c.obj)
 .debug_loc     0x0000000000000000      0x1cb lib/libc/minimal/liblib__libc__minimal.a(sprintf.c.obj)
 .debug_aranges
                0x0000000000000000       0x40 lib/libc/minimal/liblib__libc__minimal.a(sprintf.c.obj)
 .debug_ranges  0x0000000000000000       0x30 lib/libc/minimal/liblib__libc__minimal.a(sprintf.c.obj)
 .debug_line    0x0000000000000000      0x16b lib/libc/minimal/liblib__libc__minimal.a(sprintf.c.obj)
 .debug_str     0x0000000000000000      0x227 lib/libc/minimal/liblib__libc__minimal.a(sprintf.c.obj)
 .comment       0x0000000000000000       0x12 lib/libc/minimal/liblib__libc__minimal.a(sprintf.c.obj)
 .debug_frame   0x0000000000000000       0xa4 lib/libc/minimal/liblib__libc__minimal.a(sprintf.c.obj)
 .ARM.attributes
                0x0000000000000000       0x33 lib/libc/minimal/liblib__libc__minimal.a(sprintf.c.obj)
 .text          0x0000000000000000        0x0 lib/libc/minimal/liblib__libc__minimal.a(fprintf.c.obj)
 .data          0x0000000000000000        0x0 lib/libc/minimal/liblib__libc__minimal.a(fprintf.c.obj)
 .bss           0x0000000000000000        0x0 lib/libc/minimal/liblib__libc__minimal.a(fprintf.c.obj)
 .text.fprintf  0x0000000000000000       0x24 lib/libc/minimal/liblib__libc__minimal.a(fprintf.c.obj)
 .text.vfprintf
                0x0000000000000000       0x10 lib/libc/minimal/liblib__libc__minimal.a(fprintf.c.obj)
 .text.printf   0x0000000000000000       0x24 lib/libc/minimal/liblib__libc__minimal.a(fprintf.c.obj)
 .text.vprintf  0x0000000000000000       0x10 lib/libc/minimal/liblib__libc__minimal.a(fprintf.c.obj)
 .debug_info    0x0000000000000000      0x223 lib/libc/minimal/liblib__libc__minimal.a(fprintf.c.obj)
 .debug_abbrev  0x0000000000000000      0x120 lib/libc/minimal/liblib__libc__minimal.a(fprintf.c.obj)
 .debug_loc     0x0000000000000000       0xd6 lib/libc/minimal/liblib__libc__minimal.a(fprintf.c.obj)
 .debug_aranges
                0x0000000000000000       0x38 lib/libc/minimal/liblib__libc__minimal.a(fprintf.c.obj)
 .debug_ranges  0x0000000000000000       0x28 lib/libc/minimal/liblib__libc__minimal.a(fprintf.c.obj)
 .debug_line    0x0000000000000000      0x179 lib/libc/minimal/liblib__libc__minimal.a(fprintf.c.obj)
 .debug_str     0x0000000000000000      0x207 lib/libc/minimal/liblib__libc__minimal.a(fprintf.c.obj)
 .comment       0x0000000000000000       0x12 lib/libc/minimal/liblib__libc__minimal.a(fprintf.c.obj)
 .debug_frame   0x0000000000000000       0x8c lib/libc/minimal/liblib__libc__minimal.a(fprintf.c.obj)
 .ARM.attributes
                0x0000000000000000       0x33 lib/libc/minimal/liblib__libc__minimal.a(fprintf.c.obj)
 .text          0x0000000000000000        0x0 subsys/bluetooth/common/libsubsys__bluetooth__common.a(dummy.c.obj)
 .data          0x0000000000000000        0x0 subsys/bluetooth/common/libsubsys__bluetooth__common.a(dummy.c.obj)
 .bss           0x0000000000000000        0x0 subsys/bluetooth/common/libsubsys__bluetooth__common.a(dummy.c.obj)
 .debug_info    0x0000000000000000      0x626 subsys/bluetooth/common/libsubsys__bluetooth__common.a(dummy.c.obj)
 .debug_abbrev  0x0000000000000000      0x15d subsys/bluetooth/common/libsubsys__bluetooth__common.a(dummy.c.obj)
 .debug_aranges
                0x0000000000000000       0x18 subsys/bluetooth/common/libsubsys__bluetooth__common.a(dummy.c.obj)
 .debug_line    0x0000000000000000      0x1c3 subsys/bluetooth/common/libsubsys__bluetooth__common.a(dummy.c.obj)
 .debug_str     0x0000000000000000      0x560 subsys/bluetooth/common/libsubsys__bluetooth__common.a(dummy.c.obj)
 .comment       0x0000000000000000       0x12 subsys/bluetooth/common/libsubsys__bluetooth__common.a(dummy.c.obj)
 .ARM.attributes
                0x0000000000000000       0x33 subsys/bluetooth/common/libsubsys__bluetooth__common.a(dummy.c.obj)
 .text          0x0000000000000000        0x0 subsys/bluetooth/common/libsubsys__bluetooth__common.a(log.c.obj)
 .data          0x0000000000000000        0x0 subsys/bluetooth/common/libsubsys__bluetooth__common.a(log.c.obj)
 .bss           0x0000000000000000        0x0 subsys/bluetooth/common/libsubsys__bluetooth__common.a(log.c.obj)
 .text          0x0000000000000000        0x0 subsys/bluetooth/host/libsubsys__bluetooth__host.a(uuid.c.obj)
 .data          0x0000000000000000        0x0 subsys/bluetooth/host/libsubsys__bluetooth__host.a(uuid.c.obj)
 .bss           0x0000000000000000        0x0 subsys/bluetooth/host/libsubsys__bluetooth__host.a(uuid.c.obj)
 .text.uuid_to_uuid128
                0x0000000000000000       0x7c subsys/bluetooth/host/libsubsys__bluetooth__host.a(uuid.c.obj)
 .text.bt_uuid_cmp
                0x0000000000000000       0x54 subsys/bluetooth/host/libsubsys__bluetooth__host.a(uuid.c.obj)
 .text.bt_uuid_to_str
                0x0000000000000000       0xac subsys/bluetooth/host/libsubsys__bluetooth__host.a(uuid.c.obj)
 .text.bt_uuid_str
                0x0000000000000000       0x14 subsys/bluetooth/host/libsubsys__bluetooth__host.a(uuid.c.obj)
 .bss.str.3840  0x0000000000000000       0x25 subsys/bluetooth/host/libsubsys__bluetooth__host.a(uuid.c.obj)
 .rodata.bt_uuid_to_str.str1.1
                0x0000000000000000       0x22 subsys/bluetooth/host/libsubsys__bluetooth__host.a(uuid.c.obj)
 .rodata.uuid128_base
                0x0000000000000000       0x11 subsys/bluetooth/host/libsubsys__bluetooth__host.a(uuid.c.obj)
 .debug_info    0x0000000000000000      0x615 subsys/bluetooth/host/libsubsys__bluetooth__host.a(uuid.c.obj)
 .debug_abbrev  0x0000000000000000      0x21b subsys/bluetooth/host/libsubsys__bluetooth__host.a(uuid.c.obj)
 .debug_loc     0x0000000000000000      0x35f subsys/bluetooth/host/libsubsys__bluetooth__host.a(uuid.c.obj)
 .debug_aranges
                0x0000000000000000       0x38 subsys/bluetooth/host/libsubsys__bluetooth__host.a(uuid.c.obj)
 .debug_ranges  0x0000000000000000       0x58 subsys/bluetooth/host/libsubsys__bluetooth__host.a(uuid.c.obj)
 .debug_line    0x0000000000000000      0x273 subsys/bluetooth/host/libsubsys__bluetooth__host.a(uuid.c.obj)
 .debug_str     0x0000000000000000      0x337 subsys/bluetooth/host/libsubsys__bluetooth__host.a(uuid.c.obj)
 .comment       0x0000000000000000       0x12 subsys/bluetooth/host/libsubsys__bluetooth__host.a(uuid.c.obj)
 .debug_frame   0x0000000000000000       0x9c subsys/bluetooth/host/libsubsys__bluetooth__host.a(uuid.c.obj)
 .ARM.attributes
                0x0000000000000000       0x33 subsys/bluetooth/host/libsubsys__bluetooth__host.a(uuid.c.obj)
 .text          0x0000000000000000        0x0 subsys/bluetooth/host/libsubsys__bluetooth__host.a(hci_core.c.obj)
 .data          0x0000000000000000        0x0 subsys/bluetooth/host/libsubsys__bluetooth__host.a(hci_core.c.obj)
 .bss           0x0000000000000000        0x0 subsys/bluetooth/host/libsubsys__bluetooth__host.a(hci_core.c.obj)
 .text.bt_addr_le_create_nrpa
                0x0000000000000000       0x1c subsys/bluetooth/host/libsubsys__bluetooth__host.a(hci_core.c.obj)
 .text.bt_set_id_addr
                0x0000000000000000       0x8c subsys/bluetooth/host/libsubsys__bluetooth__host.a(hci_core.c.obj)
 .text.bt_addr_le_is_bonded
                0x0000000000000000        0x4 subsys/bluetooth/host/libsubsys__bluetooth__host.a(hci_core.c.obj)
 .text.bt_le_scan_stop
                0x0000000000000000       0x2c subsys/bluetooth/host/libsubsys__bluetooth__host.a(hci_core.c.obj)
 .text.bt_hci_get_cmd_opcode
                0x0000000000000000       0x14 subsys/bluetooth/host/libsubsys__bluetooth__host.a(hci_core.c.obj)
 .text.bt_pub_key_gen
                0x0000000000000000       0xc8 subsys/bluetooth/host/libsubsys__bluetooth__host.a(hci_core.c.obj)
 .text.bt_pub_key_get
                0x0000000000000000       0x18 subsys/bluetooth/host/libsubsys__bluetooth__host.a(hci_core.c.obj)
 .text.bt_dh_key_gen
                0x0000000000000000       0x68 subsys/bluetooth/host/libsubsys__bluetooth__host.a(hci_core.c.obj)
 .text.bt_le_oob_get_local
                0x0000000000000000       0x14 subsys/bluetooth/host/libsubsys__bluetooth__host.a(hci_core.c.obj)
 .rodata.__func__.11303
                0x0000000000000000        0xf subsys/bluetooth/host/libsubsys__bluetooth__host.a(hci_core.c.obj)
 .rodata.__func__.11366
                0x0000000000000000        0xf subsys/bluetooth/host/libsubsys__bluetooth__host.a(hci_core.c.obj)
 .rodata.bt_pub_key_gen.str1.1
                0x0000000000000000       0x69 subsys/bluetooth/host/libsubsys__bluetooth__host.a(hci_core.c.obj)
 .rodata.bt_set_id_addr.str1.1
                0x0000000000000000       0x7d subsys/bluetooth/host/libsubsys__bluetooth__host.a(hci_core.c.obj)
 .text          0x0000000000000000        0x0 subsys/bluetooth/controller/libsubsys__bluetooth__controller.a(mem.c.obj)
 .data          0x0000000000000000        0x0 subsys/bluetooth/controller/libsubsys__bluetooth__controller.a(mem.c.obj)
 .bss           0x0000000000000000        0x0 subsys/bluetooth/controller/libsubsys__bluetooth__controller.a(mem.c.obj)
 .text.mem_free_count_get
                0x0000000000000000        0xc subsys/bluetooth/controller/libsubsys__bluetooth__controller.a(mem.c.obj)
 .text.mem_nz   0x0000000000000000       0x16 subsys/bluetooth/controller/libsubsys__bluetooth__controller.a(mem.c.obj)
 .text.mem_ut   0x0000000000000000       0xac subsys/bluetooth/controller/libsubsys__bluetooth__controller.a(mem.c.obj)
 .text          0x0000000000000000        0x0 subsys/bluetooth/controller/libsubsys__bluetooth__controller.a(memq.c.obj)
 .data          0x0000000000000000        0x0 subsys/bluetooth/controller/libsubsys__bluetooth__controller.a(memq.c.obj)
 .bss           0x0000000000000000        0x0 subsys/bluetooth/controller/libsubsys__bluetooth__controller.a(memq.c.obj)
 .text          0x0000000000000000        0x0 subsys/bluetooth/controller/libsubsys__bluetooth__controller.a(mayfly.c.obj)
 .data          0x0000000000000000        0x0 subsys/bluetooth/controller/libsubsys__bluetooth__controller.a(mayfly.c.obj)
 .bss           0x0000000000000000        0x0 subsys/bluetooth/controller/libsubsys__bluetooth__controller.a(mayfly.c.obj)
 .text          0x0000000000000000        0x0 subsys/bluetooth/controller/libsubsys__bluetooth__controller.a(util.c.obj)
 .data          0x0000000000000000        0x0 subsys/bluetooth/controller/libsubsys__bluetooth__controller.a(util.c.obj)
 .bss           0x0000000000000000        0x0 subsys/bluetooth/controller/libsubsys__bluetooth__controller.a(util.c.obj)
 .text          0x0000000000000000        0x0 subsys/bluetooth/controller/libsubsys__bluetooth__controller.a(ticker.c.obj)
 .data          0x0000000000000000        0x0 subsys/bluetooth/controller/libsubsys__bluetooth__controller.a(ticker.c.obj)
 .bss           0x0000000000000000        0x0 subsys/bluetooth/controller/libsubsys__bluetooth__controller.a(ticker.c.obj)
 .text.ticker_is_initialized
                0x0000000000000000       0x18 subsys/bluetooth/controller/libsubsys__bluetooth__controller.a(ticker.c.obj)
 .text          0x0000000000000000        0x0 subsys/bluetooth/controller/libsubsys__bluetooth__controller.a(ll_addr.c.obj)
 .data          0x0000000000000000        0x0 subsys/bluetooth/controller/libsubsys__bluetooth__controller.a(ll_addr.c.obj)
 .bss           0x0000000000000000        0x0 subsys/bluetooth/controller/libsubsys__bluetooth__controller.a(ll_addr.c.obj)
 .text          0x0000000000000000        0x0 subsys/bluetooth/controller/libsubsys__bluetooth__controller.a(ll_tx_pwr.c.obj)
 .data          0x0000000000000000        0x0 subsys/bluetooth/controller/libsubsys__bluetooth__controller.a(ll_tx_pwr.c.obj)
 .bss           0x0000000000000000        0x0 subsys/bluetooth/controller/libsubsys__bluetooth__controller.a(ll_tx_pwr.c.obj)
 .text.ll_tx_pwr_lvl_get
                0x0000000000000000        0x6 subsys/bluetooth/controller/libsubsys__bluetooth__controller.a(ll_tx_pwr.c.obj)
 .text          0x0000000000000000        0x0 subsys/bluetooth/controller/libsubsys__bluetooth__controller.a(crypto.c.obj)
 .data          0x0000000000000000        0x0 subsys/bluetooth/controller/libsubsys__bluetooth__controller.a(crypto.c.obj)
 .bss           0x0000000000000000        0x0 subsys/bluetooth/controller/libsubsys__bluetooth__controller.a(crypto.c.obj)
 .text.bt_encrypt_le
                0x0000000000000000        0xc subsys/bluetooth/controller/libsubsys__bluetooth__controller.a(crypto.c.obj)
 .text.bt_encrypt_be
                0x0000000000000000        0xa subsys/bluetooth/controller/libsubsys__bluetooth__controller.a(crypto.c.obj)
 .text          0x0000000000000000        0x0 subsys/bluetooth/controller/libsubsys__bluetooth__controller.a(hci_driver.c.obj)
 .data          0x0000000000000000        0x0 subsys/bluetooth/controller/libsubsys__bluetooth__controller.a(hci_driver.c.obj)
 .bss           0x0000000000000000        0x0 subsys/bluetooth/controller/libsubsys__bluetooth__controller.a(hci_driver.c.obj)
 .text          0x0000000000000000        0x0 subsys/bluetooth/controller/libsubsys__bluetooth__controller.a(hci.c.obj)
 .data          0x0000000000000000        0x0 subsys/bluetooth/controller/libsubsys__bluetooth__controller.a(hci.c.obj)
 .bss           0x0000000000000000        0x0 subsys/bluetooth/controller/libsubsys__bluetooth__controller.a(hci.c.obj)
 .text.hci_acl_handle
                0x0000000000000000      0x120 subsys/bluetooth/controller/libsubsys__bluetooth__controller.a(hci.c.obj)
 .text.hci_num_cmplt_encode
                0x0000000000000000       0x28 subsys/bluetooth/controller/libsubsys__bluetooth__controller.a(hci.c.obj)
 .rodata.__func__.11121
                0x0000000000000000        0xf subsys/bluetooth/controller/libsubsys__bluetooth__controller.a(hci.c.obj)
 .rodata.hci_acl_handle.str1.1
                0x0000000000000000       0x96 subsys/bluetooth/controller/libsubsys__bluetooth__controller.a(hci.c.obj)
 .text          0x0000000000000000        0x0 subsys/bluetooth/controller/libsubsys__bluetooth__controller.a(ctrl.c.obj)
 .data          0x0000000000000000        0x0 subsys/bluetooth/controller/libsubsys__bluetooth__controller.a(ctrl.c.obj)
 .bss           0x0000000000000000        0x0 subsys/bluetooth/controller/libsubsys__bluetooth__controller.a(ctrl.c.obj)
 .text.ticker_op_latency_cancelled
                0x0000000000000000       0x48 subsys/bluetooth/controller/libsubsys__bluetooth__controller.a(ctrl.c.obj)
 .text.radio_hf_clock_get
                0x0000000000000000        0xc subsys/bluetooth/controller/libsubsys__bluetooth__controller.a(ctrl.c.obj)
 .text.ll_radio_state_abort
                0x0000000000000000        0x6 subsys/bluetooth/controller/libsubsys__bluetooth__controller.a(ctrl.c.obj)
 .text.ll_radio_state_is_idle
                0x0000000000000000        0x4 subsys/bluetooth/controller/libsubsys__bluetooth__controller.a(ctrl.c.obj)
 .text.radio_ticks_active_to_start_set
                0x0000000000000000        0xc subsys/bluetooth/controller/libsubsys__bluetooth__controller.a(ctrl.c.obj)
 .text.radio_connect_enable
                0x0000000000000000      0x2d4 subsys/bluetooth/controller/libsubsys__bluetooth__controller.a(ctrl.c.obj)
 .text.ll_conn_update
                0x0000000000000000       0x60 subsys/bluetooth/controller/libsubsys__bluetooth__controller.a(ctrl.c.obj)
 .text.ll_chm_update
                0x0000000000000000       0x84 subsys/bluetooth/controller/libsubsys__bluetooth__controller.a(ctrl.c.obj)
 .text.ll_chm_get
                0x0000000000000000       0x2a subsys/bluetooth/controller/libsubsys__bluetooth__controller.a(ctrl.c.obj)
 .text.ll_feature_req_send
                0x0000000000000000       0x28 subsys/bluetooth/controller/libsubsys__bluetooth__controller.a(ctrl.c.obj)
 .text.ll_version_ind_send
                0x0000000000000000       0x28 subsys/bluetooth/controller/libsubsys__bluetooth__controller.a(ctrl.c.obj)
 .text.ll_terminate_ind_send
                0x0000000000000000       0x28 subsys/bluetooth/controller/libsubsys__bluetooth__controller.a(ctrl.c.obj)
 .text.radio_rx_fc_get
                0x0000000000000000       0x28 subsys/bluetooth/controller/libsubsys__bluetooth__controller.a(ctrl.c.obj)
 .text.ll_tx_mem_acquire
                0x0000000000000000        0xc subsys/bluetooth/controller/libsubsys__bluetooth__controller.a(ctrl.c.obj)
 .text.ll_tx_mem_release
                0x0000000000000000        0xc subsys/bluetooth/controller/libsubsys__bluetooth__controller.a(ctrl.c.obj)
 .text.ll_tx_mem_enqueue
                0x0000000000000000       0xf0 subsys/bluetooth/controller/libsubsys__bluetooth__controller.a(ctrl.c.obj)
 .text.ll_connect_disable
                0x0000000000000000       0x14 subsys/bluetooth/controller/libsubsys__bluetooth__controller.a(ctrl.c.obj)
 .rodata.__func__.12071
                0x0000000000000000       0x10 subsys/bluetooth/controller/libsubsys__bluetooth__controller.a(ctrl.c.obj)
 .rodata.__func__.12714
                0x0000000000000000       0x1c subsys/bluetooth/controller/libsubsys__bluetooth__controller.a(ctrl.c.obj)
 .rodata.__func__.12722
                0x0000000000000000       0x12 subsys/bluetooth/controller/libsubsys__bluetooth__controller.a(ctrl.c.obj)
 .rodata.ll_tx_mem_enqueue.str1.1
                0x0000000000000000       0xb8 subsys/bluetooth/controller/libsubsys__bluetooth__controller.a(ctrl.c.obj)
 .rodata.radio_connect_enable.str1.1
                0x0000000000000000       0x27 subsys/bluetooth/controller/libsubsys__bluetooth__controller.a(ctrl.c.obj)
 .rodata.ticker_op_latency_cancelled.str1.1
                0x0000000000000000       0x34 subsys/bluetooth/controller/libsubsys__bluetooth__controller.a(ctrl.c.obj)
 .text          0x0000000000000000        0x0 subsys/bluetooth/controller/libsubsys__bluetooth__controller.a(ll.c.obj)
 .data          0x0000000000000000        0x0 subsys/bluetooth/controller/libsubsys__bluetooth__controller.a(ll.c.obj)
 .bss           0x0000000000000000        0x0 subsys/bluetooth/controller/libsubsys__bluetooth__controller.a(ll.c.obj)
 .text.ll_timeslice_ticker_id_get
                0x0000000000000000        0xa subsys/bluetooth/controller/libsubsys__bluetooth__controller.a(ll.c.obj)
 .text          0x0000000000000000        0x0 subsys/bluetooth/controller/libsubsys__bluetooth__controller.a(ll_adv.c.obj)
 .data          0x0000000000000000        0x0 subsys/bluetooth/controller/libsubsys__bluetooth__controller.a(ll_adv.c.obj)
 .bss           0x0000000000000000        0x0 subsys/bluetooth/controller/libsubsys__bluetooth__controller.a(ll_adv.c.obj)
 .text.ll_adv_set_get
                0x0000000000000000        0x8 subsys/bluetooth/controller/libsubsys__bluetooth__controller.a(ll_adv.c.obj)
 .text          0x0000000000000000        0x0 subsys/bluetooth/controller/libsubsys__bluetooth__controller.a(ll_scan.c.obj)
 .data          0x0000000000000000        0x0 subsys/bluetooth/controller/libsubsys__bluetooth__controller.a(ll_scan.c.obj)
 .bss           0x0000000000000000        0x0 subsys/bluetooth/controller/libsubsys__bluetooth__controller.a(ll_scan.c.obj)
 .text          0x0000000000000000        0x0 subsys/bluetooth/controller/libsubsys__bluetooth__controller.a(ll_filter.c.obj)
 .data          0x0000000000000000        0x0 subsys/bluetooth/controller/libsubsys__bluetooth__controller.a(ll_filter.c.obj)
 .bss           0x0000000000000000        0x0 subsys/bluetooth/controller/libsubsys__bluetooth__controller.a(ll_filter.c.obj)
 .text          0x0000000000000000        0x0 subsys/bluetooth/controller/libsubsys__bluetooth__controller.a(cntr.c.obj)
 .data          0x0000000000000000        0x0 subsys/bluetooth/controller/libsubsys__bluetooth__controller.a(cntr.c.obj)
 .bss           0x0000000000000000        0x0 subsys/bluetooth/controller/libsubsys__bluetooth__controller.a(cntr.c.obj)
 .text          0x0000000000000000        0x0 subsys/bluetooth/controller/libsubsys__bluetooth__controller.a(ecb.c.obj)
 .data          0x0000000000000000        0x0 subsys/bluetooth/controller/libsubsys__bluetooth__controller.a(ecb.c.obj)
 .bss           0x0000000000000000        0x0 subsys/bluetooth/controller/libsubsys__bluetooth__controller.a(ecb.c.obj)
 .text.ecb_cb   0x0000000000000000       0x16 subsys/bluetooth/controller/libsubsys__bluetooth__controller.a(ecb.c.obj)
 .text.ecb_encrypt_be
                0x0000000000000000       0x32 subsys/bluetooth/controller/libsubsys__bluetooth__controller.a(ecb.c.obj)
 .text.ecb_encrypt_nonblocking
                0x0000000000000000       0x50 subsys/bluetooth/controller/libsubsys__bluetooth__controller.a(ecb.c.obj)
 .text.isr_ecb  0x0000000000000000       0x80 subsys/bluetooth/controller/libsubsys__bluetooth__controller.a(ecb.c.obj)
 .text.ecb_ut   0x0000000000000000       0x80 subsys/bluetooth/controller/libsubsys__bluetooth__controller.a(ecb.c.obj)
 .rodata        0x0000000000000000       0x10 subsys/bluetooth/controller/libsubsys__bluetooth__controller.a(ecb.c.obj)
 .rodata.__func__.10097
                0x0000000000000000        0x8 subsys/bluetooth/controller/libsubsys__bluetooth__controller.a(ecb.c.obj)
 .rodata.isr_ecb.str1.1
                0x0000000000000000       0x2e subsys/bluetooth/controller/libsubsys__bluetooth__controller.a(ecb.c.obj)
 .text          0x0000000000000000        0x0 subsys/bluetooth/controller/libsubsys__bluetooth__controller.a(radio.c.obj)
 .data          0x0000000000000000        0x0 subsys/bluetooth/controller/libsubsys__bluetooth__controller.a(radio.c.obj)
 .bss           0x0000000000000000        0x0 subsys/bluetooth/controller/libsubsys__bluetooth__controller.a(radio.c.obj)
 .text.radio_tx_power_max_set
                0x0000000000000000       0x10 subsys/bluetooth/controller/libsubsys__bluetooth__controller.a(radio.c.obj)
 .text.radio_has_disabled
                0x0000000000000000       0x14 subsys/bluetooth/controller/libsubsys__bluetooth__controller.a(radio.c.obj)
 .text.radio_bc_configure
                0x0000000000000000       0x18 subsys/bluetooth/controller/libsubsys__bluetooth__controller.a(radio.c.obj)
 .text.radio_bc_status_reset
                0x0000000000000000       0x10 subsys/bluetooth/controller/libsubsys__bluetooth__controller.a(radio.c.obj)
 .text.radio_bc_has_match
                0x0000000000000000       0x14 subsys/bluetooth/controller/libsubsys__bluetooth__controller.a(radio.c.obj)
 .text.radio_tmr_start_us
                0x0000000000000000       0x10 subsys/bluetooth/controller/libsubsys__bluetooth__controller.a(radio.c.obj)
 .text.radio_tmr_start_now
                0x0000000000000000       0x2c subsys/bluetooth/controller/libsubsys__bluetooth__controller.a(radio.c.obj)
 .text.radio_tmr_sample
                0x0000000000000000        0xc subsys/bluetooth/controller/libsubsys__bluetooth__controller.a(radio.c.obj)
 .text.radio_tmr_sample_get
                0x0000000000000000        0xc subsys/bluetooth/controller/libsubsys__bluetooth__controller.a(radio.c.obj)
 .text.radio_ar_configure
                0x0000000000000000       0x64 subsys/bluetooth/controller/libsubsys__bluetooth__controller.a(radio.c.obj)
 .bss._aar_scratch
                0x0000000000000000        0x3 subsys/bluetooth/controller/libsubsys__bluetooth__controller.a(radio.c.obj)
 .text          0x0000000000000000        0x0 subsys/bluetooth/controller/libsubsys__bluetooth__controller.a(mayfly.c.obj)
 .data          0x0000000000000000        0x0 subsys/bluetooth/controller/libsubsys__bluetooth__controller.a(mayfly.c.obj)
 .bss           0x0000000000000000        0x0 subsys/bluetooth/controller/libsubsys__bluetooth__controller.a(mayfly.c.obj)
 .text          0x0000000000000000        0x0 subsys/bluetooth/controller/libsubsys__bluetooth__controller.a(ticker.c.obj)
 .data          0x0000000000000000        0x0 subsys/bluetooth/controller/libsubsys__bluetooth__controller.a(ticker.c.obj)
 .bss           0x0000000000000000        0x0 subsys/bluetooth/controller/libsubsys__bluetooth__controller.a(ticker.c.obj)
 .text          0x0000000000000000        0x0 subsys/net/libsubsys__net.a(buf.c.obj)
 .data          0x0000000000000000        0x0 subsys/net/libsubsys__net.a(buf.c.obj)
 .bss           0x0000000000000000        0x0 subsys/net/libsubsys__net.a(buf.c.obj)
 .text.generic_data_ref
                0x0000000000000000        0xe subsys/net/libsubsys__net.a(buf.c.obj)
 .text.mem_pool_data_alloc
                0x0000000000000000       0x40 subsys/net/libsubsys__net.a(buf.c.obj)
 .text.mem_pool_data_unref
                0x0000000000000000       0x28 subsys/net/libsubsys__net.a(buf.c.obj)
 .text.net_buf_reset
                0x0000000000000000        0xa subsys/net/libsubsys__net.a(buf.c.obj)
 .text.net_buf_alloc_with_data
                0x0000000000000000       0x20 subsys/net/libsubsys__net.a(buf.c.obj)
 .text.net_buf_slist_put
                0x0000000000000000       0x32 subsys/net/libsubsys__net.a(buf.c.obj)
 .text.net_buf_slist_get
                0x0000000000000000       0x62 subsys/net/libsubsys__net.a(buf.c.obj)
 .text.net_buf_frag_last
                0x0000000000000000        0xa subsys/net/libsubsys__net.a(buf.c.obj)
 .text.net_buf_frag_insert
                0x0000000000000000       0x16 subsys/net/libsubsys__net.a(buf.c.obj)
 .text.net_buf_frag_add
                0x0000000000000000       0x20 subsys/net/libsubsys__net.a(buf.c.obj)
 .text.net_buf_frag_del
                0x0000000000000000       0x18 subsys/net/libsubsys__net.a(buf.c.obj)
 .text.net_buf_clone
                0x0000000000000000       0xcc subsys/net/libsubsys__net.a(buf.c.obj)
 .text.net_buf_simple_add_le16
                0x0000000000000000       0x1e subsys/net/libsubsys__net.a(buf.c.obj)
 .text.net_buf_simple_add_be16
                0x0000000000000000       0x22 subsys/net/libsubsys__net.a(buf.c.obj)
 .text.net_buf_simple_add_le32
                0x0000000000000000       0x1e subsys/net/libsubsys__net.a(buf.c.obj)
 .text.net_buf_simple_add_be32
                0x0000000000000000       0x1e subsys/net/libsubsys__net.a(buf.c.obj)
 .text.net_buf_simple_push
                0x0000000000000000       0x10 subsys/net/libsubsys__net.a(buf.c.obj)
 .text.net_buf_simple_push_le16
                0x0000000000000000       0x22 subsys/net/libsubsys__net.a(buf.c.obj)
 .text.net_buf_simple_push_be16
                0x0000000000000000       0x28 subsys/net/libsubsys__net.a(buf.c.obj)
 .text.net_buf_simple_push_u8
                0x0000000000000000       0x12 subsys/net/libsubsys__net.a(buf.c.obj)
 .text.net_buf_simple_pull_le16
                0x0000000000000000       0x10 subsys/net/libsubsys__net.a(buf.c.obj)
 .text.net_buf_simple_pull_be16
                0x0000000000000000       0x16 subsys/net/libsubsys__net.a(buf.c.obj)
 .text.net_buf_simple_pull_le32
                0x0000000000000000       0x10 subsys/net/libsubsys__net.a(buf.c.obj)
 .text.net_buf_simple_pull_be32
                0x0000000000000000       0x24 subsys/net/libsubsys__net.a(buf.c.obj)
 .text.net_buf_simple_tailroom
                0x0000000000000000       0x10 subsys/net/libsubsys__net.a(buf.c.obj)
 .rodata.net_buf_var_cb
                0x0000000000000000        0xc subsys/net/libsubsys__net.a(buf.c.obj)
 .text          0x0000000000000000        0x0 drivers/gpio/libdrivers__gpio.a(gpio_nrf5.c.obj)
 .data          0x0000000000000000        0x0 drivers/gpio/libdrivers__gpio.a(gpio_nrf5.c.obj)
 .bss           0x0000000000000000        0x0 drivers/gpio/libdrivers__gpio.a(gpio_nrf5.c.obj)
 .text.nrf_gpiote_interrupt_enable
                0x0000000000000000        0xc drivers/gpio/libdrivers__gpio.a(gpio_nrf5.c.obj)
 .text.nrf_gpiote_interrupt_disable
                0x0000000000000000        0xc drivers/gpio/libdrivers__gpio.a(gpio_nrf5.c.obj)
 .text.nrf_gpiote_clear_port_event
                0x0000000000000000       0x10 drivers/gpio/libdrivers__gpio.a(gpio_nrf5.c.obj)
 .text          0x0000000000000000        0x0 drivers/serial/libdrivers__serial.a(uart_nrfx_uart.c.obj)
 .data          0x0000000000000000        0x0 drivers/serial/libdrivers__serial.a(uart_nrfx_uart.c.obj)
 .bss           0x0000000000000000        0x0 drivers/serial/libdrivers__serial.a(uart_nrfx_uart.c.obj)
 .text          0x0000000000000000        0x0 drivers/entropy/libdrivers__entropy.a(entropy_nrf5.c.obj)
 .data          0x0000000000000000        0x0 drivers/entropy/libdrivers__entropy.a(entropy_nrf5.c.obj)
 .bss           0x0000000000000000        0x0 drivers/entropy/libdrivers__entropy.a(entropy_nrf5.c.obj)
 .text          0x0000000000000000        0x0 kernel/libkernel.a(device.c.obj)
 .data          0x0000000000000000        0x0 kernel/libkernel.a(device.c.obj)
 .bss           0x0000000000000000        0x0 kernel/libkernel.a(device.c.obj)
 .text.device_busy_set
                0x0000000000000000        0x2 kernel/libkernel.a(device.c.obj)
 .text.device_busy_clear
                0x0000000000000000        0x2 kernel/libkernel.a(device.c.obj)
 .text          0x0000000000000000        0x0 kernel/libkernel.a(errno.c.obj)
 .data          0x0000000000000000        0x0 kernel/libkernel.a(errno.c.obj)
 .bss           0x0000000000000000        0x0 kernel/libkernel.a(errno.c.obj)
 .text.__errno  0x0000000000000000        0xc kernel/libkernel.a(errno.c.obj)
 .text          0x0000000000000000        0x0 kernel/libkernel.a(idle.c.obj)
 .data          0x0000000000000000        0x0 kernel/libkernel.a(idle.c.obj)
 .bss           0x0000000000000000        0x0 kernel/libkernel.a(idle.c.obj)
 .text._sys_soc_resume
                0x0000000000000000        0x2 kernel/libkernel.a(idle.c.obj)
 .text._sys_soc_resume_from_deep_sleep
                0x0000000000000000        0x2 kernel/libkernel.a(idle.c.obj)
 COMMON         0x0000000000000000        0x1 kernel/libkernel.a(idle.c.obj)
 .text          0x0000000000000000        0x0 kernel/libkernel.a(init.c.obj)
 .data          0x0000000000000000        0x0 kernel/libkernel.a(init.c.obj)
 .bss           0x0000000000000000        0x0 kernel/libkernel.a(init.c.obj)
 .text.k_call_stacks_analyze
                0x0000000000000000        0x2 kernel/libkernel.a(init.c.obj)
 .text.main     0x0000000000000000        0x2 kernel/libkernel.a(init.c.obj)
 .text.z_early_boot_rand32_get
                0x0000000000000000       0x48 kernel/libkernel.a(init.c.obj)
 .rodata._main_thread
                0x0000000000000000        0x4 kernel/libkernel.a(init.c.obj)
 .rodata.z_early_boot_rand32_get.str1.1
                0x0000000000000000        0xa kernel/libkernel.a(init.c.obj)
 .text          0x0000000000000000        0x0 kernel/libkernel.a(mempool.c.obj)
 .data          0x0000000000000000        0x0 kernel/libkernel.a(mempool.c.obj)
 .bss           0x0000000000000000        0x0 kernel/libkernel.a(mempool.c.obj)
 .text.k_mem_pool_free
                0x0000000000000000        0x6 kernel/libkernel.a(mempool.c.obj)
 .text          0x0000000000000000        0x0 kernel/libkernel.a(mutex.c.obj)
 .data          0x0000000000000000        0x0 kernel/libkernel.a(mutex.c.obj)
 .bss           0x0000000000000000        0x0 kernel/libkernel.a(mutex.c.obj)
 .text._impl_k_mutex_init
                0x0000000000000000        0xc kernel/libkernel.a(mutex.c.obj)
 .text._impl_k_mutex_lock
                0x0000000000000000       0xd0 kernel/libkernel.a(mutex.c.obj)
 .text._impl_k_mutex_unlock
                0x0000000000000000       0x78 kernel/libkernel.a(mutex.c.obj)
 .debug_info    0x0000000000000000      0xe8b kernel/libkernel.a(mutex.c.obj)
 .debug_abbrev  0x0000000000000000      0x367 kernel/libkernel.a(mutex.c.obj)
 .debug_loc     0x0000000000000000      0x284 kernel/libkernel.a(mutex.c.obj)
 .debug_aranges
                0x0000000000000000       0x30 kernel/libkernel.a(mutex.c.obj)
 .debug_ranges  0x0000000000000000       0x80 kernel/libkernel.a(mutex.c.obj)
 .debug_line    0x0000000000000000      0x539 kernel/libkernel.a(mutex.c.obj)
 .debug_str     0x0000000000000000      0x956 kernel/libkernel.a(mutex.c.obj)
 .comment       0x0000000000000000       0x12 kernel/libkernel.a(mutex.c.obj)
 .debug_frame   0x0000000000000000       0x64 kernel/libkernel.a(mutex.c.obj)
 .ARM.attributes
                0x0000000000000000       0x33 kernel/libkernel.a(mutex.c.obj)
 .text          0x0000000000000000        0x0 kernel/libkernel.a(queue.c.obj)
 .data          0x0000000000000000        0x0 kernel/libkernel.a(queue.c.obj)
 .bss           0x0000000000000000        0x0 kernel/libkernel.a(queue.c.obj)
 .text._impl_k_queue_cancel_wait
                0x0000000000000000       0x20 kernel/libkernel.a(queue.c.obj)
 .text.k_queue_insert
                0x0000000000000000        0x6 kernel/libkernel.a(queue.c.obj)
 .text._impl_k_queue_alloc_append
                0x0000000000000000        0xa kernel/libkernel.a(queue.c.obj)
 .text._impl_k_queue_alloc_prepend
                0x0000000000000000        0xa kernel/libkernel.a(queue.c.obj)
 .text.k_queue_merge_slist
                0x0000000000000000       0x12 kernel/libkernel.a(queue.c.obj)
 .text          0x0000000000000000        0x0 kernel/libkernel.a(sched.c.obj)
 .data          0x0000000000000000        0x0 kernel/libkernel.a(sched.c.obj)
 .bss           0x0000000000000000        0x0 kernel/libkernel.a(sched.c.obj)
 .text.k_sched_lock
                0x0000000000000000       0x1c kernel/libkernel.a(sched.c.obj)
 .text._pend_thread
                0x0000000000000000        0x4 kernel/libkernel.a(sched.c.obj)
 .text._thread_priority_set
                0x0000000000000000       0x54 kernel/libkernel.a(sched.c.obj)
 .text._priq_dumb_remove
                0x0000000000000000        0x6 kernel/libkernel.a(sched.c.obj)
 .text._priq_dumb_best
                0x0000000000000000        0xc kernel/libkernel.a(sched.c.obj)
 .text._priq_rb_lessthan
                0x0000000000000000       0x24 kernel/libkernel.a(sched.c.obj)
 .text._priq_rb_add
                0x0000000000000000       0x5c kernel/libkernel.a(sched.c.obj)
 .text._priq_rb_remove
                0x0000000000000000       0x10 kernel/libkernel.a(sched.c.obj)
 .text._priq_rb_best
                0x0000000000000000        0x6 kernel/libkernel.a(sched.c.obj)
 .text.k_sched_time_slice_set
                0x0000000000000000       0x1c kernel/libkernel.a(sched.c.obj)
 .text._impl_k_thread_priority_get
                0x0000000000000000        0x6 kernel/libkernel.a(sched.c.obj)
 .text._impl_k_thread_priority_set
                0x0000000000000000        0x4 kernel/libkernel.a(sched.c.obj)
 .text._impl_k_wakeup
                0x0000000000000000       0x4c kernel/libkernel.a(sched.c.obj)
 .text._impl_k_is_preempt_thread
                0x0000000000000000       0x34 kernel/libkernel.a(sched.c.obj)
 .text          0x0000000000000000        0x0 kernel/libkernel.a(sem.c.obj)
 .data          0x0000000000000000        0x0 kernel/libkernel.a(sem.c.obj)
 .bss           0x0000000000000000        0x0 kernel/libkernel.a(sem.c.obj)
 .text._sem_give_non_preemptible
                0x0000000000000000       0x26 kernel/libkernel.a(sem.c.obj)
 .text          0x0000000000000000        0x0 kernel/libkernel.a(sys_clock.c.obj)
 .data          0x0000000000000000        0x0 kernel/libkernel.a(sys_clock.c.obj)
 .bss           0x0000000000000000        0x0 kernel/libkernel.a(sys_clock.c.obj)
 .text._tick_get_32
                0x0000000000000000        0xc kernel/libkernel.a(sys_clock.c.obj)
 .text._impl_k_uptime_get
                0x0000000000000000       0x16 kernel/libkernel.a(sys_clock.c.obj)
 .text.k_uptime_delta
                0x0000000000000000       0x18 kernel/libkernel.a(sys_clock.c.obj)
 .text.k_uptime_delta_32
                0x0000000000000000        0x8 kernel/libkernel.a(sys_clock.c.obj)
 .data.sys_clock_us_per_tick
                0x0000000000000000        0x4 kernel/libkernel.a(sys_clock.c.obj)
 .text          0x0000000000000000        0x0 kernel/libkernel.a(system_work_q.c.obj)
 .data          0x0000000000000000        0x0 kernel/libkernel.a(system_work_q.c.obj)
 .bss           0x0000000000000000        0x0 kernel/libkernel.a(system_work_q.c.obj)
 .text          0x0000000000000000        0x0 kernel/libkernel.a(thread.c.obj)
 .data          0x0000000000000000        0x0 kernel/libkernel.a(thread.c.obj)
 .bss           0x0000000000000000        0x0 kernel/libkernel.a(thread.c.obj)
 .text.k_thread_foreach
                0x0000000000000000        0x2 kernel/libkernel.a(thread.c.obj)
 .text._thread_essential_set
                0x0000000000000000       0x14 kernel/libkernel.a(thread.c.obj)
 .text._thread_essential_clear
                0x0000000000000000       0x14 kernel/libkernel.a(thread.c.obj)
 .text.k_busy_wait
                0x0000000000000000       0x28 kernel/libkernel.a(thread.c.obj)
 .text._impl_k_thread_cancel
                0x0000000000000000       0x32 kernel/libkernel.a(thread.c.obj)
 .text._k_thread_single_suspend
                0x0000000000000000       0x20 kernel/libkernel.a(thread.c.obj)
 .text._impl_k_thread_suspend
                0x0000000000000000       0x34 kernel/libkernel.a(thread.c.obj)
 .text._k_thread_single_resume
                0x0000000000000000        0xc kernel/libkernel.a(thread.c.obj)
 .text._impl_k_thread_resume
                0x0000000000000000       0x1c kernel/libkernel.a(thread.c.obj)
 .text.k_thread_access_grant
                0x0000000000000000        0x6 kernel/libkernel.a(thread.c.obj)
 .text.k_thread_user_mode_enter
                0x0000000000000000       0x24 kernel/libkernel.a(thread.c.obj)
 .text          0x0000000000000000        0x0 kernel/libkernel.a(work_q.c.obj)
 .data          0x0000000000000000        0x0 kernel/libkernel.a(work_q.c.obj)
 .bss           0x0000000000000000        0x0 kernel/libkernel.a(work_q.c.obj)
 .text.k_work_submit_to_queue
                0x0000000000000000       0x30 kernel/libkernel.a(work_q.c.obj)
 .text.work_timeout
                0x0000000000000000        0xa kernel/libkernel.a(work_q.c.obj)
 .text.k_delayed_work_init
                0x0000000000000000       0x20 kernel/libkernel.a(work_q.c.obj)
 .text.k_delayed_work_cancel
                0x0000000000000000       0xc8 kernel/libkernel.a(work_q.c.obj)
 .text.k_delayed_work_submit_to_queue
                0x0000000000000000       0xac kernel/libkernel.a(work_q.c.obj)
 .text          0x0000000000000000        0x0 kernel/libkernel.a(poll.c.obj)
 .data          0x0000000000000000        0x0 kernel/libkernel.a(poll.c.obj)
 .bss           0x0000000000000000        0x0 kernel/libkernel.a(poll.c.obj)
 .text._impl_k_poll_signal_init
                0x0000000000000000        0xa kernel/libkernel.a(poll.c.obj)
 .text._impl_k_poll_signal_check
                0x0000000000000000        0xa kernel/libkernel.a(poll.c.obj)
 .text._impl_k_poll_signal
                0x0000000000000000       0x40 kernel/libkernel.a(poll.c.obj)
 .text          0x0000000000000000        0x0 CMakeFiles/offsets.dir/arch/arm/core/offsets/offsets.c.obj
 .data          0x0000000000000000        0x0 CMakeFiles/offsets.dir/arch/arm/core/offsets/offsets.c.obj
 .bss           0x0000000000000000        0x0 CMakeFiles/offsets.dir/arch/arm/core/offsets/offsets.c.obj
 .text          0x0000000000000000       0x18 /opt/zephyr-sdk/sysroots/armv5-zephyr-eabi/usr/lib/arm-zephyr-eabi/6.2.0/armv7e-m/libgcc.a(_lshrdi3.o)
 .data          0x0000000000000000        0x0 /opt/zephyr-sdk/sysroots/armv5-zephyr-eabi/usr/lib/arm-zephyr-eabi/6.2.0/armv7e-m/libgcc.a(_lshrdi3.o)
 .bss           0x0000000000000000        0x0 /opt/zephyr-sdk/sysroots/armv5-zephyr-eabi/usr/lib/arm-zephyr-eabi/6.2.0/armv7e-m/libgcc.a(_lshrdi3.o)
 .debug_line    0x0000000000000000       0x94 /opt/zephyr-sdk/sysroots/armv5-zephyr-eabi/usr/lib/arm-zephyr-eabi/6.2.0/armv7e-m/libgcc.a(_lshrdi3.o)
 .debug_info    0x0000000000000000       0xe0 /opt/zephyr-sdk/sysroots/armv5-zephyr-eabi/usr/lib/arm-zephyr-eabi/6.2.0/armv7e-m/libgcc.a(_lshrdi3.o)
 .debug_abbrev  0x0000000000000000       0x14 /opt/zephyr-sdk/sysroots/armv5-zephyr-eabi/usr/lib/arm-zephyr-eabi/6.2.0/armv7e-m/libgcc.a(_lshrdi3.o)
 .debug_aranges
                0x0000000000000000       0x20 /opt/zephyr-sdk/sysroots/armv5-zephyr-eabi/usr/lib/arm-zephyr-eabi/6.2.0/armv7e-m/libgcc.a(_lshrdi3.o)
 .ARM.attributes
                0x0000000000000000       0x1e /opt/zephyr-sdk/sysroots/armv5-zephyr-eabi/usr/lib/arm-zephyr-eabi/6.2.0/armv7e-m/libgcc.a(_lshrdi3.o)
 .text          0x0000000000000000       0x18 /opt/zephyr-sdk/sysroots/armv5-zephyr-eabi/usr/lib/arm-zephyr-eabi/6.2.0/armv7e-m/libgcc.a(_ashldi3.o)
 .data          0x0000000000000000        0x0 /opt/zephyr-sdk/sysroots/armv5-zephyr-eabi/usr/lib/arm-zephyr-eabi/6.2.0/armv7e-m/libgcc.a(_ashldi3.o)
 .bss           0x0000000000000000        0x0 /opt/zephyr-sdk/sysroots/armv5-zephyr-eabi/usr/lib/arm-zephyr-eabi/6.2.0/armv7e-m/libgcc.a(_ashldi3.o)
 .debug_line    0x0000000000000000       0x94 /opt/zephyr-sdk/sysroots/armv5-zephyr-eabi/usr/lib/arm-zephyr-eabi/6.2.0/armv7e-m/libgcc.a(_ashldi3.o)
 .debug_info    0x0000000000000000       0xe0 /opt/zephyr-sdk/sysroots/armv5-zephyr-eabi/usr/lib/arm-zephyr-eabi/6.2.0/armv7e-m/libgcc.a(_ashldi3.o)
 .debug_abbrev  0x0000000000000000       0x14 /opt/zephyr-sdk/sysroots/armv5-zephyr-eabi/usr/lib/arm-zephyr-eabi/6.2.0/armv7e-m/libgcc.a(_ashldi3.o)
 .debug_aranges
                0x0000000000000000       0x20 /opt/zephyr-sdk/sysroots/armv5-zephyr-eabi/usr/lib/arm-zephyr-eabi/6.2.0/armv7e-m/libgcc.a(_ashldi3.o)
 .ARM.attributes
                0x0000000000000000       0x1e /opt/zephyr-sdk/sysroots/armv5-zephyr-eabi/usr/lib/arm-zephyr-eabi/6.2.0/armv7e-m/libgcc.a(_ashldi3.o)
 .data          0x0000000000000000        0x0 /opt/zephyr-sdk/sysroots/armv5-zephyr-eabi/usr/lib/arm-zephyr-eabi/6.2.0/armv7e-m/libgcc.a(_aeabi_uldivmod.o)
 .bss           0x0000000000000000        0x0 /opt/zephyr-sdk/sysroots/armv5-zephyr-eabi/usr/lib/arm-zephyr-eabi/6.2.0/armv7e-m/libgcc.a(_aeabi_uldivmod.o)
 .data          0x0000000000000000        0x0 /opt/zephyr-sdk/sysroots/armv5-zephyr-eabi/usr/lib/arm-zephyr-eabi/6.2.0/armv7e-m/libgcc.a(_popcountsi2.o)
 .bss           0x0000000000000000        0x0 /opt/zephyr-sdk/sysroots/armv5-zephyr-eabi/usr/lib/arm-zephyr-eabi/6.2.0/armv7e-m/libgcc.a(_popcountsi2.o)
 .data          0x0000000000000000        0x0 /opt/zephyr-sdk/sysroots/armv5-zephyr-eabi/usr/lib/arm-zephyr-eabi/6.2.0/armv7e-m/libgcc.a(_udivmoddi4.o)
 .bss           0x0000000000000000        0x0 /opt/zephyr-sdk/sysroots/armv5-zephyr-eabi/usr/lib/arm-zephyr-eabi/6.2.0/armv7e-m/libgcc.a(_udivmoddi4.o)
 .ARM.extab     0x0000000000000000        0x0 /opt/zephyr-sdk/sysroots/armv5-zephyr-eabi/usr/lib/arm-zephyr-eabi/6.2.0/armv7e-m/libgcc.a(_udivmoddi4.o)
 .data          0x0000000000000000        0x0 /opt/zephyr-sdk/sysroots/armv5-zephyr-eabi/usr/lib/arm-zephyr-eabi/6.2.0/armv7e-m/libgcc.a(_dvmd_tls.o)
 .bss           0x0000000000000000        0x0 /opt/zephyr-sdk/sysroots/armv5-zephyr-eabi/usr/lib/arm-zephyr-eabi/6.2.0/armv7e-m/libgcc.a(_dvmd_tls.o)

Memory Configuration

Name             Origin             Length             Attributes
FLASH            0x0000000000000000 0x0000000000080000 xr
SRAM             0x0000000020000000 0x0000000000010000 xw
IDT_LIST         0x0000000020010000 0x0000000000000800 xw
*default*        0x0000000000000000 0xffffffffffffffff

Linker script and memory map

LOAD CMakeFiles/kernel_elf.dir/misc/empty_file.c.obj
LOAD CMakeFiles/kernel_elf.dir/isr_tables.c.obj
START GROUP
LOAD ../libapp.a
LOAD libzephyr.a
LOAD arch/arm/core/libarch__arm__core.a
LOAD arch/arm/core/cortex_m/libarch__arm__core__cortex_m.a
LOAD arch/arm/core/cortex_m/mpu/libarch__arm__core__cortex_m__mpu.a
LOAD lib/libc/minimal/liblib__libc__minimal.a
LOAD subsys/bluetooth/common/libsubsys__bluetooth__common.a
LOAD subsys/bluetooth/host/libsubsys__bluetooth__host.a
LOAD subsys/bluetooth/controller/libsubsys__bluetooth__controller.a
LOAD subsys/net/libsubsys__net.a
LOAD drivers/gpio/libdrivers__gpio.a
LOAD drivers/serial/libdrivers__serial.a
LOAD drivers/entropy/libdrivers__entropy.a
LOAD kernel/libkernel.a
LOAD CMakeFiles/offsets.dir/arch/arm/core/offsets/offsets.c.obj
END GROUP
LOAD /opt/zephyr-sdk/sysroots/armv5-zephyr-eabi/usr/lib/arm-zephyr-eabi/6.2.0/armv7e-m/libgcc.a
                0x0000000000000000                _image_rom_start = 0x0

text            0x0000000000000000     0xca3e
                0x0000000000000000                . = 0x0
                0x0000000000000000                _vector_start = .
 *(.exc_vector_table)
 *(.exc_vector_table.*)
 .exc_vector_table._vector_table_section
                0x0000000000000000       0x40 arch/arm/core/cortex_m/libarch__arm__core__cortex_m.a(vector_table.S.obj)
                0x0000000000000000                _vector_table
 *(.gnu.linkonce.irq_vector_table)
 .gnu.linkonce.irq_vector_table
                0x0000000000000040       0x9c CMakeFiles/kernel_elf.dir/isr_tables.c.obj
                0x0000000000000040                _irq_vector_table
 *(.openocd_dbg)
 *(.openocd_dbg.*)
 *(.kinetis_flash_config)
 *(.kinetis_flash_config.*)
 *(.gnu.linkonce.sw_isr_table)
 .gnu.linkonce.sw_isr_table
                0x00000000000000dc      0x138 CMakeFiles/kernel_elf.dir/isr_tables.c.obj
                0x00000000000000dc                _sw_isr_table
                0x0000000000000214                _vector_end = .
                0x0000000000000214                _image_text_start = .
 *(.text)
 .text          0x0000000000000214       0x30 /opt/zephyr-sdk/sysroots/armv5-zephyr-eabi/usr/lib/arm-zephyr-eabi/6.2.0/armv7e-m/libgcc.a(_aeabi_uldivmod.o)
                0x0000000000000214                __aeabi_uldivmod
 .text          0x0000000000000244       0x28 /opt/zephyr-sdk/sysroots/armv5-zephyr-eabi/usr/lib/arm-zephyr-eabi/6.2.0/armv7e-m/libgcc.a(_popcountsi2.o)
                0x0000000000000244                __popcountsi2
 .text          0x000000000000026c      0x2dc /opt/zephyr-sdk/sysroots/armv5-zephyr-eabi/usr/lib/arm-zephyr-eabi/6.2.0/armv7e-m/libgcc.a(_udivmoddi4.o)
                0x000000000000026c                __udivmoddi4
 .text          0x0000000000000548        0x4 /opt/zephyr-sdk/sysroots/armv5-zephyr-eabi/usr/lib/arm-zephyr-eabi/6.2.0/armv7e-m/libgcc.a(_dvmd_tls.o)
                0x0000000000000548                __aeabi_ldiv0
                0x0000000000000548                __aeabi_idiv0
 *(.text.*)
 .text.scan_cb  0x000000000000054c       0x10 ../libapp.a(main.c.obj)
 .text.main     0x000000000000055c       0xa8 ../libapp.a(main.c.obj)
                0x000000000000055c                main
 .text.ftpan_36
                0x0000000000000604       0x40 libzephyr.a(soc.c.obj)
 .text.nordicsemi_nrf52_init
                0x0000000000000644      0x134 libzephyr.a(soc.c.obj)
 .text._thread_entry
                0x0000000000000778       0x14 libzephyr.a(thread_entry.c.obj)
                0x0000000000000778                _thread_entry
 .text.get_bit_ptr
                0x000000000000078c       0x28 libzephyr.a(mempool.c.obj)
 .text.set_free_bit
                0x00000000000007b4       0x1c libzephyr.a(mempool.c.obj)
 .text.clear_free_bit
                0x00000000000007d0       0x1e libzephyr.a(mempool.c.obj)
 .text._sys_mem_pool_base_init
                0x00000000000007ee       0x96 libzephyr.a(mempool.c.obj)
                0x00000000000007ee                _sys_mem_pool_base_init
 .text._sys_mem_pool_block_alloc
                0x0000000000000884      0x164 libzephyr.a(mempool.c.obj)
                0x0000000000000884                _sys_mem_pool_block_alloc
 .text._sys_mem_pool_block_free
                0x00000000000009e8      0x116 libzephyr.a(mempool.c.obj)
                0x00000000000009e8                _sys_mem_pool_block_free
 .text._nop_char_out
                0x0000000000000afe        0x4 libzephyr.a(printk.c.obj)
 *fill*         0x0000000000000b02        0x2 
 .text.char_out
                0x0000000000000b04       0x10 libzephyr.a(printk.c.obj)
 .text._printk_dec_ulong
                0x0000000000000b14       0xa0 libzephyr.a(printk.c.obj)
 .text.str_out  0x0000000000000bb4       0x2a libzephyr.a(printk.c.obj)
 *fill*         0x0000000000000bde        0x2 
 .text.__printk_hook_install
                0x0000000000000be0        0xc libzephyr.a(printk.c.obj)
                0x0000000000000be0                __printk_hook_install
 .text._vprintk
                0x0000000000000bec      0x25e libzephyr.a(printk.c.obj)
                0x0000000000000bec                _vprintk
 *fill*         0x0000000000000e4a        0x2 
 .text.vprintk  0x0000000000000e4c       0x20 libzephyr.a(printk.c.obj)
                0x0000000000000e4c                vprintk
 .text.printk   0x0000000000000e6c       0x1a libzephyr.a(printk.c.obj)
                0x0000000000000e6c                printk
 *fill*         0x0000000000000e86        0x2 
 .text.snprintk
                0x0000000000000e88       0x38 libzephyr.a(printk.c.obj)
                0x0000000000000e88                snprintk
 .text._ConfigAbsSyms
                0x0000000000000ec0        0x2 libzephyr.a(configs.c.obj)
                0x0000000000000ec0                _ConfigAbsSyms
 *fill*         0x0000000000000ec2        0x2 
 .text.sys_rand32_get
                0x0000000000000ec4       0x50 libzephyr.a(rand32_entropy_device.c.obj)
                0x0000000000000ec4                sys_rand32_get
 .text.console_out
                0x0000000000000f14       0x28 libzephyr.a(uart_console.c.obj)
 .text.uart_console_hook_install
                0x0000000000000f3c        0xc libzephyr.a(uart_console.c.obj)
                0x0000000000000f3c                uart_console_hook_install
 .text.uart_console_init
                0x0000000000000f48       0x1c libzephyr.a(uart_console.c.obj)
 .text._m16src_stop
                0x0000000000000f64       0x5c libzephyr.a(nrf5_power_clock.c.obj)
 .text._clock_control_init
                0x0000000000000fc0       0x16 libzephyr.a(nrf5_power_clock.c.obj)
 *fill*         0x0000000000000fd6        0x2 
 .text._m16src_start
                0x0000000000000fd8       0xb0 libzephyr.a(nrf5_power_clock.c.obj)
 .text._k32src_start
                0x0000000000001088       0xcc libzephyr.a(nrf5_power_clock.c.obj)
 .text._power_clock_isr
                0x0000000000001154       0x9c libzephyr.a(nrf5_power_clock.c.obj)
 .text.rtc_compare_set
                0x00000000000011f0       0x30 libzephyr.a(nrf_rtc_timer.c.obj)
 .text.rtc_announce_set_next
                0x0000000000001220       0x5c libzephyr.a(nrf_rtc_timer.c.obj)
 .text.rtc1_nrf5_isr
                0x000000000000127c       0x10 libzephyr.a(nrf_rtc_timer.c.obj)
                0x000000000000127c                rtc1_nrf5_isr
 .text._timer_idle_enter
                0x000000000000128c       0x3c libzephyr.a(nrf_rtc_timer.c.obj)
                0x000000000000128c                _timer_idle_enter
 .text._timer_idle_exit
                0x00000000000012c8       0x2c libzephyr.a(nrf_rtc_timer.c.obj)
                0x00000000000012c8                _timer_idle_exit
 .text._sys_clock_driver_init
                0x00000000000012f4       0x7c libzephyr.a(nrf_rtc_timer.c.obj)
                0x00000000000012f4                _sys_clock_driver_init
 .text._timer_cycle_get_32
                0x0000000000001370       0x38 libzephyr.a(nrf_rtc_timer.c.obj)
                0x0000000000001370                _timer_cycle_get_32
 .text._HandlerModeExit
                0x00000000000013a8       0x28 arch/arm/core/libarch__arm__core.a(exc_exit.S.obj)
                0x00000000000013a8                _ExcExit
                0x00000000000013a8                _IntExit
 .text._IntLibInit
                0x00000000000013d0       0x18 arch/arm/core/libarch__arm__core.a(irq_init.c.obj)
                0x00000000000013d0                _IntLibInit
 .text.__swap   0x00000000000013e8       0x30 arch/arm/core/libarch__arm__core.a(swap.c.obj)
                0x00000000000013e8                __swap
 .text.__pendsv
                0x0000000000001418       0x44 arch/arm/core/libarch__arm__core.a(swap_helper.S.obj)
                0x0000000000001418                __pendsv
 .text.__svc    0x000000000000145c       0x24 arch/arm/core/libarch__arm__core.a(swap_helper.S.obj)
                0x000000000000145c                __svc
 .text._FaultThreadShow.isra.2
                0x0000000000001480       0x1c arch/arm/core/libarch__arm__core.a(fault.c.obj)
 .text._MpuFault
                0x000000000000149c       0x90 arch/arm/core/libarch__arm__core.a(fault.c.obj)
 .text._UsageFault
                0x000000000000152c       0x90 arch/arm/core/libarch__arm__core.a(fault.c.obj)
 .text._BusFault
                0x00000000000015bc       0xa0 arch/arm/core/libarch__arm__core.a(fault.c.obj)
 .text._Fault   0x000000000000165c       0xcc arch/arm/core/libarch__arm__core.a(fault.c.obj)
                0x000000000000165c                _Fault
 .text._FaultInit
                0x0000000000001728       0x10 arch/arm/core/libarch__arm__core.a(fault.c.obj)
                0x0000000000001728                _FaultInit
 .text._arch_irq_enable
                0x0000000000001738       0x20 arch/arm/core/libarch__arm__core.a(irq_manage.c.obj)
                0x0000000000001738                _arch_irq_enable
 .text._arch_irq_disable
                0x0000000000001758       0x28 arch/arm/core/libarch__arm__core.a(irq_manage.c.obj)
                0x0000000000001758                _arch_irq_disable
 .text._arch_irq_is_enabled
                0x0000000000001780       0x1c arch/arm/core/libarch__arm__core.a(irq_manage.c.obj)
                0x0000000000001780                _arch_irq_is_enabled
 .text._irq_priority_set
                0x000000000000179c       0x30 arch/arm/core/libarch__arm__core.a(irq_manage.c.obj)
                0x000000000000179c                _irq_priority_set
 .text._irq_spurious
                0x00000000000017cc        0x4 arch/arm/core/libarch__arm__core.a(irq_manage.c.obj)
                0x00000000000017cc                _irq_spurious
 .text._arch_isr_direct_pm
                0x00000000000017d0       0x1c arch/arm/core/libarch__arm__core.a(irq_manage.c.obj)
                0x00000000000017d0                _arch_isr_direct_pm
 .text._new_thread
                0x00000000000017ec       0x50 arch/arm/core/libarch__arm__core.a(thread.c.obj)
                0x00000000000017ec                _new_thread
 .text._CpuIdleInit
                0x000000000000183c        0xc arch/arm/core/libarch__arm__core.a(cpu_idle.S.obj)
                0x000000000000183c                _CpuIdleInit
 .text.k_cpu_idle
                0x0000000000001848        0xc arch/arm/core/libarch__arm__core.a(cpu_idle.S.obj)
                0x0000000000001848                k_cpu_idle
 .text.__fault  0x0000000000001854       0x28 arch/arm/core/libarch__arm__core.a(fault_s.S.obj)
                0x0000000000001854                __usage_fault
                0x0000000000001854                __reserved
                0x0000000000001854                __bus_fault
                0x0000000000001854                __debug_monitor
                0x0000000000001854                __mpu_fault
                0x0000000000001854                __hard_fault
 .text._NanoFatalErrorHandler
                0x000000000000187c       0x58 arch/arm/core/libarch__arm__core.a(fatal.c.obj)
                0x000000000000187c                _NanoFatalErrorHandler
 .text._do_kernel_oops
                0x00000000000018d4        0x8 arch/arm/core/libarch__arm__core.a(fatal.c.obj)
                0x00000000000018d4                _do_kernel_oops
 .text._SysFatalErrorHandler
                0x00000000000018dc       0x58 arch/arm/core/libarch__arm__core.a(sys_fatal_error_handler.c.obj)
                0x00000000000018dc                _SysFatalErrorHandler
 .text._impl_k_thread_abort
                0x0000000000001934       0x4c arch/arm/core/libarch__arm__core.a(thread_abort.c.obj)
                0x0000000000001934                _impl_k_thread_abort
 .text._isr_wrapper
                0x0000000000001980       0x3c arch/arm/core/libarch__arm__core.a(isr_wrapper.S.obj)
                0x0000000000001980                _isr_wrapper
 .text._reset_section
                0x00000000000019bc       0x24 arch/arm/core/cortex_m/libarch__arm__core__cortex_m.a(reset.S.obj)
                0x00000000000019bc                __reset
                0x00000000000019bc                __start
 .text._SysNmiOnReset
                0x00000000000019e0        0x8 arch/arm/core/cortex_m/libarch__arm__core__cortex_m.a(nmi_on_reset.S.obj)
                0x00000000000019e0                _SysNmiOnReset
 .text._PrepC   0x00000000000019e8       0x28 arch/arm/core/cortex_m/libarch__arm__core__cortex_m.a(prep_c.c.obj)
                0x00000000000019e8                _PrepC
 .text.__nmi    0x0000000000001a10        0xe arch/arm/core/cortex_m/libarch__arm__core__cortex_m.a(nmi.c.obj)
                0x0000000000001a10                __nmi
 *fill*         0x0000000000001a1e        0x2 
 .text.arm_mpu_init
                0x0000000000001a20       0x54 arch/arm/core/cortex_m/mpu/libarch__arm__core__cortex_m__mpu.a(arm_mpu.c.obj)
 .text.strcpy   0x0000000000001a74       0x14 lib/libc/minimal/liblib__libc__minimal.a(string.c.obj)
                0x0000000000001a74                strcpy
 .text.strcmp   0x0000000000001a88       0x1a lib/libc/minimal/liblib__libc__minimal.a(string.c.obj)
                0x0000000000001a88                strcmp
 .text.memcmp   0x0000000000001aa2       0x2a lib/libc/minimal/liblib__libc__minimal.a(string.c.obj)
                0x0000000000001aa2                memcmp
 .text.memcpy   0x0000000000001acc       0x58 lib/libc/minimal/liblib__libc__minimal.a(string.c.obj)
                0x0000000000001acc                memcpy
 .text.memset   0x0000000000001b24       0x46 lib/libc/minimal/liblib__libc__minimal.a(string.c.obj)
                0x0000000000001b24                memset
 *fill*         0x0000000000001b6a        0x2 
 .text.bt_hex   0x0000000000001b6c       0x6c subsys/bluetooth/common/libsubsys__bluetooth__common.a(log.c.obj)
                0x0000000000001b6c                bt_hex
 .text.bt_addr_str
                0x0000000000001bd8       0x4c subsys/bluetooth/common/libsubsys__bluetooth__common.a(log.c.obj)
                0x0000000000001bd8                bt_addr_str
 .text.bt_addr_le_str
                0x0000000000001c24       0x98 subsys/bluetooth/common/libsubsys__bluetooth__common.a(log.c.obj)
                0x0000000000001c24                bt_addr_le_str
 .text.ver_str  0x0000000000001cbc       0x38 subsys/bluetooth/host/libsubsys__bluetooth__host.a(hci_core.c.obj)
 .text.atomic_or
                0x0000000000001cf4       0x22 subsys/bluetooth/host/libsubsys__bluetooth__host.a(hci_core.c.obj)
 .text.atomic_and
                0x0000000000001d16       0x22 subsys/bluetooth/host/libsubsys__bluetooth__host.a(hci_core.c.obj)
 .text.hci_cmd_done
                0x0000000000001d38       0xc4 subsys/bluetooth/host/libsubsys__bluetooth__host.a(hci_core.c.obj)
 .text.atomic_test_bit.constprop.24
                0x0000000000001dfc       0x24 subsys/bluetooth/host/libsubsys__bluetooth__host.a(hci_core.c.obj)
 .text.bt_hci_cmd_create
                0x0000000000001e20       0x60 subsys/bluetooth/host/libsubsys__bluetooth__host.a(hci_core.c.obj)
                0x0000000000001e20                bt_hci_cmd_create
 .text.bt_hci_cmd_send_sync
                0x0000000000001e80       0x7c subsys/bluetooth/host/libsubsys__bluetooth__host.a(hci_core.c.obj)
                0x0000000000001e80                bt_hci_cmd_send_sync
 .text.set_le_scan_enable
                0x0000000000001efc       0x68 subsys/bluetooth/host/libsubsys__bluetooth__host.a(hci_core.c.obj)
 .text.set_random_address
                0x0000000000001f64       0x5c subsys/bluetooth/host/libsubsys__bluetooth__host.a(hci_core.c.obj)
 .text.le_set_private_addr
                0x0000000000001fc0       0x24 subsys/bluetooth/host/libsubsys__bluetooth__host.a(hci_core.c.obj)
 .text.set_ad   0x0000000000001fe4       0x98 subsys/bluetooth/host/libsubsys__bluetooth__host.a(hci_core.c.obj)
 .text.bt_le_scan_update
                0x000000000000207c       0x22 subsys/bluetooth/host/libsubsys__bluetooth__host.a(hci_core.c.obj)
                0x000000000000207c                bt_le_scan_update
 .text.bt_addr_le_create_static
                0x000000000000209e       0x1c subsys/bluetooth/host/libsubsys__bluetooth__host.a(hci_core.c.obj)
                0x000000000000209e                bt_addr_le_create_static
 *fill*         0x00000000000020ba        0x2 
 .text.bt_set_static_addr
                0x00000000000020bc       0x60 subsys/bluetooth/host/libsubsys__bluetooth__host.a(hci_core.c.obj)
                0x00000000000020bc                bt_set_static_addr
 .text.bt_dev_show_info
                0x000000000000211c       0x9c subsys/bluetooth/host/libsubsys__bluetooth__host.a(hci_core.c.obj)
                0x000000000000211c                bt_dev_show_info
 .text.hci_init
                0x00000000000021b8      0x508 subsys/bluetooth/host/libsubsys__bluetooth__host.a(hci_core.c.obj)
 .text.init_work
                0x00000000000026c0       0x30 subsys/bluetooth/host/libsubsys__bluetooth__host.a(hci_core.c.obj)
 .text.bt_send  0x00000000000026f0       0x10 subsys/bluetooth/host/libsubsys__bluetooth__host.a(hci_core.c.obj)
                0x00000000000026f0                bt_send
 .text.bt_hci_cmd_send
                0x0000000000002700       0x70 subsys/bluetooth/host/libsubsys__bluetooth__host.a(hci_core.c.obj)
                0x0000000000002700                bt_hci_cmd_send
 .text.hci_tx_thread
                0x0000000000002770      0x158 subsys/bluetooth/host/libsubsys__bluetooth__host.a(hci_core.c.obj)
 .text.bt_recv  0x00000000000028c8      0x1fc subsys/bluetooth/host/libsubsys__bluetooth__host.a(hci_core.c.obj)
                0x00000000000028c8                bt_recv
 .text.bt_recv_prio
                0x0000000000002ac4       0xfc subsys/bluetooth/host/libsubsys__bluetooth__host.a(hci_core.c.obj)
                0x0000000000002ac4                bt_recv_prio
 .text.bt_hci_driver_register
                0x0000000000002bc0       0x28 subsys/bluetooth/host/libsubsys__bluetooth__host.a(hci_core.c.obj)
                0x0000000000002bc0                bt_hci_driver_register
 .text.bt_enable
                0x0000000000002be8       0xec subsys/bluetooth/host/libsubsys__bluetooth__host.a(hci_core.c.obj)
                0x0000000000002be8                bt_enable
 .text.bt_le_adv_start
                0x0000000000002cd4      0x16c subsys/bluetooth/host/libsubsys__bluetooth__host.a(hci_core.c.obj)
                0x0000000000002cd4                bt_le_adv_start
 .text.bt_le_adv_stop
                0x0000000000002e40       0x70 subsys/bluetooth/host/libsubsys__bluetooth__host.a(hci_core.c.obj)
                0x0000000000002e40                bt_le_adv_stop
 .text.bt_le_scan_start
                0x0000000000002eb0      0x134 subsys/bluetooth/host/libsubsys__bluetooth__host.a(hci_core.c.obj)
                0x0000000000002eb0                bt_le_scan_start
 .text.bt_buf_get_rx
                0x0000000000002fe4       0x20 subsys/bluetooth/host/libsubsys__bluetooth__host.a(hci_core.c.obj)
                0x0000000000002fe4                bt_buf_get_rx
 .text.bt_buf_get_cmd_complete
                0x0000000000003004       0x44 subsys/bluetooth/host/libsubsys__bluetooth__host.a(hci_core.c.obj)
                0x0000000000003004                bt_buf_get_cmd_complete
 .text.mem_init
                0x0000000000003048       0x4e subsys/bluetooth/controller/libsubsys__bluetooth__controller.a(mem.c.obj)
                0x0000000000003048                mem_init
 .text.mem_acquire
                0x0000000000003096       0x34 subsys/bluetooth/controller/libsubsys__bluetooth__controller.a(mem.c.obj)
                0x0000000000003096                mem_acquire
 .text.mem_release
                0x00000000000030ca       0x2a subsys/bluetooth/controller/libsubsys__bluetooth__controller.a(mem.c.obj)
                0x00000000000030ca                mem_release
 .text.mem_get  0x00000000000030f4        0x6 subsys/bluetooth/controller/libsubsys__bluetooth__controller.a(mem.c.obj)
                0x00000000000030f4                mem_get
 .text.mem_index_get
                0x00000000000030fa        0xa subsys/bluetooth/controller/libsubsys__bluetooth__controller.a(mem.c.obj)
                0x00000000000030fa                mem_index_get
 .text.mem_rcopy
                0x0000000000003104       0x1e subsys/bluetooth/controller/libsubsys__bluetooth__controller.a(mem.c.obj)
                0x0000000000003104                mem_rcopy
 .text.memq_init
                0x0000000000003122        0x6 subsys/bluetooth/controller/libsubsys__bluetooth__controller.a(memq.c.obj)
                0x0000000000003122                memq_init
 .text.memq_enqueue
                0x0000000000003128        0xe subsys/bluetooth/controller/libsubsys__bluetooth__controller.a(memq.c.obj)
                0x0000000000003128                memq_enqueue
 .text.memq_peek
                0x0000000000003136       0x10 subsys/bluetooth/controller/libsubsys__bluetooth__controller.a(memq.c.obj)
                0x0000000000003136                memq_peek
 .text.memq_dequeue
                0x0000000000003146       0x1e subsys/bluetooth/controller/libsubsys__bluetooth__controller.a(memq.c.obj)
                0x0000000000003146                memq_dequeue
 .text.mayfly_init
                0x0000000000003164       0x54 subsys/bluetooth/controller/libsubsys__bluetooth__controller.a(mayfly.c.obj)
                0x0000000000003164                mayfly_init
 .text.mayfly_enable
                0x00000000000031b8       0x50 subsys/bluetooth/controller/libsubsys__bluetooth__controller.a(mayfly.c.obj)
                0x00000000000031b8                mayfly_enable
 .text.mayfly_enqueue
                0x0000000000003208       0x9c subsys/bluetooth/controller/libsubsys__bluetooth__controller.a(mayfly.c.obj)
                0x0000000000003208                mayfly_enqueue
 .text.mayfly_run
                0x00000000000032a4      0x124 subsys/bluetooth/controller/libsubsys__bluetooth__controller.a(mayfly.c.obj)
                0x00000000000032a4                mayfly_run
 .text.util_ones_count_get
                0x00000000000033c8       0x22 subsys/bluetooth/controller/libsubsys__bluetooth__controller.a(util.c.obj)
                0x00000000000033c8                util_ones_count_get
 .text.ticker_dequeue
                0x00000000000033ea       0x58 subsys/bluetooth/controller/libsubsys__bluetooth__controller.a(ticker.c.obj)
 .text.ticks_to_expire_prep
                0x0000000000003442       0x3c subsys/bluetooth/controller/libsubsys__bluetooth__controller.a(ticker.c.obj)
 .text.ticker_job_op_cb
                0x000000000000347e       0x14 subsys/bluetooth/controller/libsubsys__bluetooth__controller.a(ticker.c.obj)
 .text.ticker_worker
                0x0000000000003492       0xae subsys/bluetooth/controller/libsubsys__bluetooth__controller.a(ticker.c.obj)
                0x0000000000003492                ticker_worker
 .text.ticker_job
                0x0000000000003540      0x7b0 subsys/bluetooth/controller/libsubsys__bluetooth__controller.a(ticker.c.obj)
                0x0000000000003540                ticker_job
 .text.ticker_init
                0x0000000000003cf0       0x70 subsys/bluetooth/controller/libsubsys__bluetooth__controller.a(ticker.c.obj)
                0x0000000000003cf0                ticker_init
 .text.ticker_trigger
                0x0000000000003d60       0x24 subsys/bluetooth/controller/libsubsys__bluetooth__controller.a(ticker.c.obj)
                0x0000000000003d60                ticker_trigger
 .text.ticker_start
                0x0000000000003d84       0xa0 subsys/bluetooth/controller/libsubsys__bluetooth__controller.a(ticker.c.obj)
                0x0000000000003d84                ticker_start
 .text.ticker_update
                0x0000000000003e24       0x9c subsys/bluetooth/controller/libsubsys__bluetooth__controller.a(ticker.c.obj)
                0x0000000000003e24                ticker_update
 .text.ticker_stop
                0x0000000000003ec0       0x78 subsys/bluetooth/controller/libsubsys__bluetooth__controller.a(ticker.c.obj)
                0x0000000000003ec0                ticker_stop
 .text.ticker_next_slot_get
                0x0000000000003f38       0x84 subsys/bluetooth/controller/libsubsys__bluetooth__controller.a(ticker.c.obj)
                0x0000000000003f38                ticker_next_slot_get
 .text.ticker_job_idle_get
                0x0000000000003fbc       0x78 subsys/bluetooth/controller/libsubsys__bluetooth__controller.a(ticker.c.obj)
                0x0000000000003fbc                ticker_job_idle_get
 .text.ticker_job_sched
                0x0000000000004034       0x2c subsys/bluetooth/controller/libsubsys__bluetooth__controller.a(ticker.c.obj)
                0x0000000000004034                ticker_job_sched
 .text.ticker_ticks_now_get
                0x0000000000004060        0x4 subsys/bluetooth/controller/libsubsys__bluetooth__controller.a(ticker.c.obj)
                0x0000000000004060                ticker_ticks_now_get
 .text.ticker_ticks_diff_get
                0x0000000000004064        0x8 subsys/bluetooth/controller/libsubsys__bluetooth__controller.a(ticker.c.obj)
                0x0000000000004064                ticker_ticks_diff_get
 .text.ll_addr_get
                0x000000000000406c       0x34 subsys/bluetooth/controller/libsubsys__bluetooth__controller.a(ll_addr.c.obj)
                0x000000000000406c                ll_addr_get
 .text.ll_addr_set
                0x00000000000040a0       0x38 subsys/bluetooth/controller/libsubsys__bluetooth__controller.a(ll_addr.c.obj)
                0x00000000000040a0                ll_addr_set
 .text.ll_tx_pwr_get
                0x00000000000040d8        0x8 subsys/bluetooth/controller/libsubsys__bluetooth__controller.a(ll_tx_pwr.c.obj)
                0x00000000000040d8                ll_tx_pwr_get
 .text.bt_rand  0x00000000000040e0       0x38 subsys/bluetooth/controller/libsubsys__bluetooth__controller.a(crypto.c.obj)
                0x00000000000040e0                bt_rand
 .text._hci_driver_init
                0x0000000000004118       0x10 subsys/bluetooth/controller/libsubsys__bluetooth__controller.a(hci_driver.c.obj)
 .text.recv_thread
                0x0000000000004128       0xa0 subsys/bluetooth/controller/libsubsys__bluetooth__controller.a(hci_driver.c.obj)
 .text.hci_driver_send
                0x00000000000041c8       0x78 subsys/bluetooth/controller/libsubsys__bluetooth__controller.a(hci_driver.c.obj)
 .text.prio_recv_thread
                0x0000000000004240       0x3c subsys/bluetooth/controller/libsubsys__bluetooth__controller.a(hci_driver.c.obj)
 .text.hci_driver_open
                0x000000000000427c       0x9c subsys/bluetooth/controller/libsubsys__bluetooth__controller.a(hci_driver.c.obj)
 .text.sys_put_le32
                0x0000000000004318       0x12 subsys/bluetooth/controller/libsubsys__bluetooth__controller.a(hci.c.obj)
 .text.evt_create
                0x000000000000432a       0x14 subsys/bluetooth/controller/libsubsys__bluetooth__controller.a(hci.c.obj)
 *fill*         0x000000000000433e        0x2 
 .text.cmd_complete
                0x0000000000004340       0x44 subsys/bluetooth/controller/libsubsys__bluetooth__controller.a(hci.c.obj)
 .text.meta_evt
                0x0000000000004384       0x2a subsys/bluetooth/controller/libsubsys__bluetooth__controller.a(hci.c.obj)
 *fill*         0x00000000000043ae        0x2 
 .text.le_remote_feat_complete
                0x00000000000043b0       0x5c subsys/bluetooth/controller/libsubsys__bluetooth__controller.a(hci.c.obj)
 .text.bt_addr_le_to_str.constprop.43
                0x000000000000440c       0x78 subsys/bluetooth/controller/libsubsys__bluetooth__controller.a(hci.c.obj)
 .text.le_adv_ext_report.isra.39
                0x0000000000004484       0xf4 subsys/bluetooth/controller/libsubsys__bluetooth__controller.a(hci.c.obj)
 .text.sys_get_le64
                0x0000000000004578        0x8 subsys/bluetooth/controller/libsubsys__bluetooth__controller.a(hci.c.obj)
 .text.hci_cmd_handle
                0x0000000000004580      0x66c subsys/bluetooth/controller/libsubsys__bluetooth__controller.a(hci.c.obj)
                0x0000000000004580                hci_cmd_handle
 .text.hci_evt_encode
                0x0000000000004bec      0x31c subsys/bluetooth/controller/libsubsys__bluetooth__controller.a(hci.c.obj)
                0x0000000000004bec                hci_evt_encode
 .text.hci_get_class
                0x0000000000004f08       0x40 subsys/bluetooth/controller/libsubsys__bluetooth__controller.a(hci.c.obj)
                0x0000000000004f08                hci_get_class
 .text.hci_init
                0x0000000000004f48       0x30 subsys/bluetooth/controller/libsubsys__bluetooth__controller.a(hci.c.obj)
                0x0000000000004f48                hci_init
 .text.cpu_sleep
                0x0000000000004f78        0x8 subsys/bluetooth/controller/libsubsys__bluetooth__controller.a(ctrl.c.obj)
 .text.pdu_len_cmp
                0x0000000000004f80       0x3c subsys/bluetooth/controller/libsubsys__bluetooth__controller.a(ctrl.c.obj)
 .text.ticker_if_done
                0x0000000000004fbc        0x4 subsys/bluetooth/controller/libsubsys__bluetooth__controller.a(ctrl.c.obj)
 .text.prepare_reduced
                0x0000000000004fc0        0xc subsys/bluetooth/controller/libsubsys__bluetooth__controller.a(ctrl.c.obj)
 .text.prepare_normal
                0x0000000000004fcc        0xc subsys/bluetooth/controller/libsubsys__bluetooth__controller.a(ctrl.c.obj)
 .text.chan_sel_remap
                0x0000000000004fd8       0x36 subsys/bluetooth/controller/libsubsys__bluetooth__controller.a(ctrl.c.obj)
 *fill*         0x000000000000500e        0x2 
 .text.packet_rx_reserve_get
                0x0000000000005010       0x38 subsys/bluetooth/controller/libsubsys__bluetooth__controller.a(ctrl.c.obj)
 .text.conn_update_req
                0x0000000000005048       0x68 subsys/bluetooth/controller/libsubsys__bluetooth__controller.a(ctrl.c.obj)
 .text.tx_cmplt_get
                0x00000000000050b0       0x94 subsys/bluetooth/controller/libsubsys__bluetooth__controller.a(ctrl.c.obj)
 .text.connection_get
                0x0000000000005144       0x2c subsys/bluetooth/controller/libsubsys__bluetooth__controller.a(ctrl.c.obj)
 .text.role_disable
                0x0000000000005170      0x2bc subsys/bluetooth/controller/libsubsys__bluetooth__controller.a(ctrl.c.obj)
 .text.mayfly_xtal_retain
                0x000000000000542c       0xa4 subsys/bluetooth/controller/libsubsys__bluetooth__controller.a(ctrl.c.obj)
 .text.sched_after_mstr_free_slot_get
                0x00000000000054d0      0x150 subsys/bluetooth/controller/libsubsys__bluetooth__controller.a(ctrl.c.obj)
 .text.isr_adv_ci_adva_check
                0x0000000000005620       0x48 subsys/bluetooth/controller/libsubsys__bluetooth__controller.a(ctrl.c.obj)
 .text.packet_rx_enqueue
                0x0000000000005668       0x98 subsys/bluetooth/controller/libsubsys__bluetooth__controller.a(ctrl.c.obj)
 .text.rx_fc_lock
                0x0000000000005700       0x34 subsys/bluetooth/controller/libsubsys__bluetooth__controller.a(ctrl.c.obj)
 .text.ticker_success_assert
                0x0000000000005734       0x3c subsys/bluetooth/controller/libsubsys__bluetooth__controller.a(ctrl.c.obj)
 .text.ticker_stop_adv_assert
                0x0000000000005770       0x68 subsys/bluetooth/controller/libsubsys__bluetooth__controller.a(ctrl.c.obj)
 .text.ticker_stop_scan_assert
                0x00000000000057d8       0x68 subsys/bluetooth/controller/libsubsys__bluetooth__controller.a(ctrl.c.obj)
 .text.ticker_update_adv_assert
                0x0000000000005840       0x48 subsys/bluetooth/controller/libsubsys__bluetooth__controller.a(ctrl.c.obj)
 .text.ticker_update_slave_assert
                0x0000000000005888       0x4c subsys/bluetooth/controller/libsubsys__bluetooth__controller.a(ctrl.c.obj)
 .text.ticker_job_disable
                0x00000000000058d4       0x18 subsys/bluetooth/controller/libsubsys__bluetooth__controller.a(ctrl.c.obj)
 .text.hdr_conn_get
                0x00000000000058ec       0x3c subsys/bluetooth/controller/libsubsys__bluetooth__controller.a(ctrl.c.obj)
 .text.event_stop.part.12
                0x0000000000005928       0x34 subsys/bluetooth/controller/libsubsys__bluetooth__controller.a(ctrl.c.obj)
 .text.event_stop
                0x000000000000595c       0x20 subsys/bluetooth/controller/libsubsys__bluetooth__controller.a(ctrl.c.obj)
 .text.event_active
                0x000000000000597c       0x4c subsys/bluetooth/controller/libsubsys__bluetooth__controller.a(ctrl.c.obj)
 .text.event_xtal
                0x00000000000059c8       0x4c subsys/bluetooth/controller/libsubsys__bluetooth__controller.a(ctrl.c.obj)
 .text.mayfly_radio_active
                0x0000000000005a14       0x64 subsys/bluetooth/controller/libsubsys__bluetooth__controller.a(ctrl.c.obj)
 .text.mayfly_radio_inactive
                0x0000000000005a78        0x6 subsys/bluetooth/controller/libsubsys__bluetooth__controller.a(ctrl.c.obj)
 *fill*         0x0000000000005a7e        0x2 
 .text.mayfly_radio_stop
                0x0000000000005a80       0x68 subsys/bluetooth/controller/libsubsys__bluetooth__controller.a(ctrl.c.obj)
 .text.rx_packet_set
                0x0000000000005ae8       0x42 subsys/bluetooth/controller/libsubsys__bluetooth__controller.a(ctrl.c.obj)
 *fill*         0x0000000000005b2a        0x2 
 .text.pdu_node_tx_release
                0x0000000000005b2c       0x78 subsys/bluetooth/controller/libsubsys__bluetooth__controller.a(ctrl.c.obj)
 .text.packet_tx_enqueue
                0x0000000000005ba4       0x9c subsys/bluetooth/controller/libsubsys__bluetooth__controller.a(ctrl.c.obj)
 .text.connection_release
                0x0000000000005c40      0x138 subsys/bluetooth/controller/libsubsys__bluetooth__controller.a(ctrl.c.obj)
 .text.tx_packet_set
                0x0000000000005d78       0x40 subsys/bluetooth/controller/libsubsys__bluetooth__controller.a(ctrl.c.obj)
 .text.chan_set
                0x0000000000005db8       0x70 subsys/bluetooth/controller/libsubsys__bluetooth__controller.a(ctrl.c.obj)
 .text.adv_setup
                0x0000000000005e28       0xb0 subsys/bluetooth/controller/libsubsys__bluetooth__controller.a(ctrl.c.obj)
 .text.sched_after_mstr_free_offset_get
                0x0000000000005ed8       0xa0 subsys/bluetooth/controller/libsubsys__bluetooth__controller.a(ctrl.c.obj)
 .text.mayfly_sched_win_offset_use
                0x0000000000005f78       0x2e subsys/bluetooth/controller/libsubsys__bluetooth__controller.a(ctrl.c.obj)
 *fill*         0x0000000000005fa6        0x2 
 .text.mayfly_sched_after_mstr_free_offset_get
                0x0000000000005fa8       0x1c subsys/bluetooth/controller/libsubsys__bluetooth__controller.a(ctrl.c.obj)
 .text.ticker_stop_adv_stop
                0x0000000000005fc4      0x18c subsys/bluetooth/controller/libsubsys__bluetooth__controller.a(ctrl.c.obj)
 .text.isr_scan_tgta_check.isra.29
                0x0000000000006150       0x60 subsys/bluetooth/controller/libsubsys__bluetooth__controller.a(ctrl.c.obj)
 .text.mayfly_adv_stop
                0x00000000000061b0       0x60 subsys/bluetooth/controller/libsubsys__bluetooth__controller.a(ctrl.c.obj)
 .text.terminate_ind_rx_enqueue
                0x0000000000006210       0x88 subsys/bluetooth/controller/libsubsys__bluetooth__controller.a(ctrl.c.obj)
 .text.isr_rx_scan_report.isra.35
                0x0000000000006298       0x90 subsys/bluetooth/controller/libsubsys__bluetooth__controller.a(ctrl.c.obj)
 .text.prepare_normal_set
                0x0000000000006328       0x74 subsys/bluetooth/controller/libsubsys__bluetooth__controller.a(ctrl.c.obj)
 *fill*         0x000000000000639c        0x4 
 .text.mayfly_xtal_stop_calc
                0x00000000000063a0      0x238 subsys/bluetooth/controller/libsubsys__bluetooth__controller.a(ctrl.c.obj)
 .text.preempt_calc
                0x00000000000065d8       0x3c subsys/bluetooth/controller/libsubsys__bluetooth__controller.a(ctrl.c.obj)
 .text.adv_scan_configure.constprop.45
                0x0000000000006614       0x54 subsys/bluetooth/controller/libsubsys__bluetooth__controller.a(ctrl.c.obj)
 .text.event_scan
                0x0000000000006668      0x190 subsys/bluetooth/controller/libsubsys__bluetooth__controller.a(ctrl.c.obj)
 .text.event_adv
                0x00000000000067f8      0x104 subsys/bluetooth/controller/libsubsys__bluetooth__controller.a(ctrl.c.obj)
 .text.event_stop.constprop.46
                0x00000000000068fc       0x1c subsys/bluetooth/controller/libsubsys__bluetooth__controller.a(ctrl.c.obj)
 .text.event_common_prepare
                0x0000000000006918      0x1ac subsys/bluetooth/controller/libsubsys__bluetooth__controller.a(ctrl.c.obj)
 .text.radio_event_adv_prepare
                0x0000000000006ac4       0x64 subsys/bluetooth/controller/libsubsys__bluetooth__controller.a(ctrl.c.obj)
                0x0000000000006ac4                radio_event_adv_prepare
 .text.event_scan_prepare
                0x0000000000006b28       0xbc subsys/bluetooth/controller/libsubsys__bluetooth__controller.a(ctrl.c.obj)
 .text.event_adv_stop
                0x0000000000006be4       0x5c subsys/bluetooth/controller/libsubsys__bluetooth__controller.a(ctrl.c.obj)
                0x0000000000006be4                event_adv_stop
 .text.packet_rx_allocate.constprop.47
                0x0000000000006c40       0x94 subsys/bluetooth/controller/libsubsys__bluetooth__controller.a(ctrl.c.obj)
 .text.common_init
                0x0000000000006cd4       0xfc subsys/bluetooth/controller/libsubsys__bluetooth__controller.a(ctrl.c.obj)
 .text.mayfly_xtal_start
                0x0000000000006dd0       0x10 subsys/bluetooth/controller/libsubsys__bluetooth__controller.a(ctrl.c.obj)
 .text.mayfly_xtal_stop
                0x0000000000006de0       0x10 subsys/bluetooth/controller/libsubsys__bluetooth__controller.a(ctrl.c.obj)
 .text.chan_sel_2
                0x0000000000006df0       0x88 subsys/bluetooth/controller/libsubsys__bluetooth__controller.a(ctrl.c.obj)
 .text.ctrl_tx_enqueue
                0x0000000000006e78       0x5c subsys/bluetooth/controller/libsubsys__bluetooth__controller.a(ctrl.c.obj)
 .text.ctrl_tx_sec_enqueue
                0x0000000000006ed4       0x32 subsys/bluetooth/controller/libsubsys__bluetooth__controller.a(ctrl.c.obj)
 *fill*         0x0000000000006f06        0x2 
 .text.feature_rsp_send
                0x0000000000006f08       0x8c subsys/bluetooth/controller/libsubsys__bluetooth__controller.a(ctrl.c.obj)
 *fill*         0x0000000000006f94        0x4 
 .text.event_connection_prepare
                0x0000000000006f98      0x724 subsys/bluetooth/controller/libsubsys__bluetooth__controller.a(ctrl.c.obj)
 .text.event_master_prepare
                0x00000000000076bc        0x4 subsys/bluetooth/controller/libsubsys__bluetooth__controller.a(ctrl.c.obj)
 .text.event_slave_prepare
                0x00000000000076c0        0x4 subsys/bluetooth/controller/libsubsys__bluetooth__controller.a(ctrl.c.obj)
 .text.connection_configure
                0x00000000000076c4       0x3c subsys/bluetooth/controller/libsubsys__bluetooth__controller.a(ctrl.c.obj)
 .text.event_slave
                0x0000000000007700      0x1c4 subsys/bluetooth/controller/libsubsys__bluetooth__controller.a(ctrl.c.obj)
 .text.prepare_pdu_data_tx
                0x00000000000078c4       0xca subsys/bluetooth/controller/libsubsys__bluetooth__controller.a(ctrl.c.obj)
 *fill*         0x000000000000798e        0x2 
 .text.isr      0x0000000000007990     0x16ec subsys/bluetooth/controller/libsubsys__bluetooth__controller.a(ctrl.c.obj)
 .text.event_master
                0x000000000000907c      0x180 subsys/bluetooth/controller/libsubsys__bluetooth__controller.a(ctrl.c.obj)
 .text.radio_init
                0x00000000000091fc       0xfc subsys/bluetooth/controller/libsubsys__bluetooth__controller.a(ctrl.c.obj)
                0x00000000000091fc                radio_init
 .text.ll_reset
                0x00000000000092f8       0xa0 subsys/bluetooth/controller/libsubsys__bluetooth__controller.a(ctrl.c.obj)
                0x00000000000092f8                ll_reset
 .text.radio_adv_data_get
                0x0000000000009398        0x8 subsys/bluetooth/controller/libsubsys__bluetooth__controller.a(ctrl.c.obj)
                0x0000000000009398                radio_adv_data_get
 .text.radio_scan_data_get
                0x00000000000093a0        0x8 subsys/bluetooth/controller/libsubsys__bluetooth__controller.a(ctrl.c.obj)
                0x00000000000093a0                radio_scan_data_get
 .text.ll_adv_is_enabled
                0x00000000000093a8       0x10 subsys/bluetooth/controller/libsubsys__bluetooth__controller.a(ctrl.c.obj)
                0x00000000000093a8                ll_adv_is_enabled
 .text.radio_adv_filter_pol_get
                0x00000000000093b8       0x18 subsys/bluetooth/controller/libsubsys__bluetooth__controller.a(ctrl.c.obj)
                0x00000000000093b8                radio_adv_filter_pol_get
 .text.ll_scan_is_enabled
                0x00000000000093d0       0x2c subsys/bluetooth/controller/libsubsys__bluetooth__controller.a(ctrl.c.obj)
                0x00000000000093d0                ll_scan_is_enabled
 .text.radio_scan_filter_pol_get
                0x00000000000093fc       0x1c subsys/bluetooth/controller/libsubsys__bluetooth__controller.a(ctrl.c.obj)
                0x00000000000093fc                radio_scan_filter_pol_get
 .text.ll_tx_pwr_lvl_get
                0x0000000000009418       0x14 subsys/bluetooth/controller/libsubsys__bluetooth__controller.a(ctrl.c.obj)
                0x0000000000009418                ll_tx_pwr_lvl_get
 .text.ll_rx_get
                0x000000000000942c       0x70 subsys/bluetooth/controller/libsubsys__bluetooth__controller.a(ctrl.c.obj)
                0x000000000000942c                ll_rx_get
 .text.ll_rx_mem_release
                0x000000000000949c       0x8c subsys/bluetooth/controller/libsubsys__bluetooth__controller.a(ctrl.c.obj)
                0x000000000000949c                ll_rx_mem_release
 .text.do_radio_rx_fc_set
                0x0000000000009528       0x5c subsys/bluetooth/controller/libsubsys__bluetooth__controller.a(ctrl.c.obj)
                0x0000000000009528                do_radio_rx_fc_set
 .text.radio_rx_fc_set
                0x0000000000009584       0x58 subsys/bluetooth/controller/libsubsys__bluetooth__controller.a(ctrl.c.obj)
                0x0000000000009584                radio_rx_fc_set
 .text.ll_adv_scan_state_cb
                0x00000000000095dc        0x2 subsys/bluetooth/controller/libsubsys__bluetooth__controller.a(ctrl.c.obj)
                0x00000000000095dc                ll_adv_scan_state_cb
 *fill*         0x00000000000095de        0x2 
 .text.radio_adv_enable
                0x00000000000095e0      0x2fc subsys/bluetooth/controller/libsubsys__bluetooth__controller.a(ctrl.c.obj)
                0x00000000000095e0                radio_adv_enable
 .text.radio_adv_disable
                0x00000000000098dc       0x5c subsys/bluetooth/controller/libsubsys__bluetooth__controller.a(ctrl.c.obj)
                0x00000000000098dc                radio_adv_disable
 .text.radio_scan_enable
                0x0000000000009938      0x1a4 subsys/bluetooth/controller/libsubsys__bluetooth__controller.a(ctrl.c.obj)
                0x0000000000009938                radio_scan_enable
 .text.radio_scan_disable
                0x0000000000009adc       0x5c subsys/bluetooth/controller/libsubsys__bluetooth__controller.a(ctrl.c.obj)
                0x0000000000009adc                radio_scan_disable
 .text.ll_rx_dequeue
                0x0000000000009b38      0x154 subsys/bluetooth/controller/libsubsys__bluetooth__controller.a(ctrl.c.obj)
                0x0000000000009b38                ll_rx_dequeue
 .text.rtc0_nrf5_isr
                0x0000000000009c8c       0x34 subsys/bluetooth/controller/libsubsys__bluetooth__controller.a(ll.c.obj)
 .text.swi4_nrf5_isr
                0x0000000000009cc0        0x6 subsys/bluetooth/controller/libsubsys__bluetooth__controller.a(ll.c.obj)
 .text.radio_nrf5_isr
                0x0000000000009cc6       0x1e subsys/bluetooth/controller/libsubsys__bluetooth__controller.a(ll.c.obj)
                0x0000000000009cc6                radio_nrf5_isr
 .text.radio_active_callback
                0x0000000000009ce4        0x2 subsys/bluetooth/controller/libsubsys__bluetooth__controller.a(ll.c.obj)
                0x0000000000009ce4                radio_active_callback
 *fill*         0x0000000000009ce6        0x2 
 .text.radio_event_callback
                0x0000000000009ce8        0xc subsys/bluetooth/controller/libsubsys__bluetooth__controller.a(ll.c.obj)
                0x0000000000009ce8                radio_event_callback
 .text.ll_init  0x0000000000009cf4      0x150 subsys/bluetooth/controller/libsubsys__bluetooth__controller.a(ll.c.obj)
                0x0000000000009cf4                ll_init
 .text.ll_adv_params_set
                0x0000000000009e44      0x208 subsys/bluetooth/controller/libsubsys__bluetooth__controller.a(ll_adv.c.obj)
                0x0000000000009e44                ll_adv_params_set
 .text.ll_adv_data_set
                0x000000000000a04c       0xb0 subsys/bluetooth/controller/libsubsys__bluetooth__controller.a(ll_adv.c.obj)
                0x000000000000a04c                ll_adv_data_set
 .text.ll_scan_data_set
                0x000000000000a0fc       0x8c subsys/bluetooth/controller/libsubsys__bluetooth__controller.a(ll_adv.c.obj)
                0x000000000000a0fc                ll_scan_data_set
 .text.ll_adv_enable
                0x000000000000a188       0xc0 subsys/bluetooth/controller/libsubsys__bluetooth__controller.a(ll_adv.c.obj)
                0x000000000000a188                ll_adv_enable
 .text.ll_scan_params_set
                0x000000000000a248       0x40 subsys/bluetooth/controller/libsubsys__bluetooth__controller.a(ll_scan.c.obj)
                0x000000000000a248                ll_scan_params_set
 .text.ll_scan_enable
                0x000000000000a288       0x54 subsys/bluetooth/controller/libsubsys__bluetooth__controller.a(ll_scan.c.obj)
                0x000000000000a288                ll_scan_enable
 .text.ctrl_filter_get
                0x000000000000a2dc       0x44 subsys/bluetooth/controller/libsubsys__bluetooth__controller.a(ll_filter.c.obj)
                0x000000000000a2dc                ctrl_filter_get
 .text.ll_wl_size_get
                0x000000000000a320        0x4 subsys/bluetooth/controller/libsubsys__bluetooth__controller.a(ll_filter.c.obj)
                0x000000000000a320                ll_wl_size_get
 .text.ll_wl_clear
                0x000000000000a324       0x2c subsys/bluetooth/controller/libsubsys__bluetooth__controller.a(ll_filter.c.obj)
                0x000000000000a324                ll_wl_clear
 .text.ll_wl_add
                0x000000000000a350       0x70 subsys/bluetooth/controller/libsubsys__bluetooth__controller.a(ll_filter.c.obj)
                0x000000000000a350                ll_wl_add
 .text.ll_wl_remove
                0x000000000000a3c0       0x8c subsys/bluetooth/controller/libsubsys__bluetooth__controller.a(ll_filter.c.obj)
                0x000000000000a3c0                ll_wl_remove
 .text.ll_filter_reset
                0x000000000000a44c       0x18 subsys/bluetooth/controller/libsubsys__bluetooth__controller.a(ll_filter.c.obj)
                0x000000000000a44c                ll_filter_reset
 .text.cntr_init
                0x000000000000a464       0x1c subsys/bluetooth/controller/libsubsys__bluetooth__controller.a(cntr.c.obj)
                0x000000000000a464                cntr_init
 .text.cntr_start
                0x000000000000a480       0x1c subsys/bluetooth/controller/libsubsys__bluetooth__controller.a(cntr.c.obj)
                0x000000000000a480                cntr_start
 .text.cntr_stop
                0x000000000000a49c       0x5c subsys/bluetooth/controller/libsubsys__bluetooth__controller.a(cntr.c.obj)
                0x000000000000a49c                cntr_stop
 .text.cntr_cnt_get
                0x000000000000a4f8        0xc subsys/bluetooth/controller/libsubsys__bluetooth__controller.a(cntr.c.obj)
                0x000000000000a4f8                cntr_cnt_get
 .text.cntr_cmp_set
                0x000000000000a504       0x10 subsys/bluetooth/controller/libsubsys__bluetooth__controller.a(cntr.c.obj)
                0x000000000000a504                cntr_cmp_set
 .text.do_ecb   0x000000000000a514       0x4c subsys/bluetooth/controller/libsubsys__bluetooth__controller.a(ecb.c.obj)
 .text.ecb_encrypt
                0x000000000000a560       0x42 subsys/bluetooth/controller/libsubsys__bluetooth__controller.a(ecb.c.obj)
                0x000000000000a560                ecb_encrypt
 *fill*         0x000000000000a5a2        0x2 
 .text.hal_radio_enable_on_tick_ppi_config_and_enable
                0x000000000000a5a4       0x30 subsys/bluetooth/controller/libsubsys__bluetooth__controller.a(radio.c.obj)
 .text.sw_switch.isra.9
                0x000000000000a5d4       0xc8 subsys/bluetooth/controller/libsubsys__bluetooth__controller.a(radio.c.obj)
 .text.isr_radio
                0x000000000000a69c       0x10 subsys/bluetooth/controller/libsubsys__bluetooth__controller.a(radio.c.obj)
                0x000000000000a69c                isr_radio
 .text.radio_isr_set
                0x000000000000a6ac       0x28 subsys/bluetooth/controller/libsubsys__bluetooth__controller.a(radio.c.obj)
                0x000000000000a6ac                radio_isr_set
 .text.radio_setup
                0x000000000000a6d4       0x44 subsys/bluetooth/controller/libsubsys__bluetooth__controller.a(radio.c.obj)
                0x000000000000a6d4                radio_setup
 .text.radio_reset
                0x000000000000a718       0x34 subsys/bluetooth/controller/libsubsys__bluetooth__controller.a(radio.c.obj)
                0x000000000000a718                radio_reset
 .text.radio_phy_set
                0x000000000000a74c       0x20 subsys/bluetooth/controller/libsubsys__bluetooth__controller.a(radio.c.obj)
                0x000000000000a74c                radio_phy_set
 .text.radio_tx_power_set
                0x000000000000a76c        0xc subsys/bluetooth/controller/libsubsys__bluetooth__controller.a(radio.c.obj)
                0x000000000000a76c                radio_tx_power_set
 .text.radio_freq_chan_set
                0x000000000000a778        0xc subsys/bluetooth/controller/libsubsys__bluetooth__controller.a(radio.c.obj)
                0x000000000000a778                radio_freq_chan_set
 .text.radio_whiten_iv_set
                0x000000000000a784       0x24 subsys/bluetooth/controller/libsubsys__bluetooth__controller.a(radio.c.obj)
                0x000000000000a784                radio_whiten_iv_set
 .text.radio_aa_set
                0x000000000000a7a8       0x30 subsys/bluetooth/controller/libsubsys__bluetooth__controller.a(radio.c.obj)
                0x000000000000a7a8                radio_aa_set
 .text.radio_pkt_configure
                0x000000000000a7d8       0x5c subsys/bluetooth/controller/libsubsys__bluetooth__controller.a(radio.c.obj)
                0x000000000000a7d8                radio_pkt_configure
 .text.radio_pkt_rx_set
                0x000000000000a834        0xc subsys/bluetooth/controller/libsubsys__bluetooth__controller.a(radio.c.obj)
                0x000000000000a834                radio_pkt_rx_set
 .text.radio_pkt_tx_set
                0x000000000000a840        0xc subsys/bluetooth/controller/libsubsys__bluetooth__controller.a(radio.c.obj)
                0x000000000000a840                radio_pkt_tx_set
 .text.radio_tx_ready_delay_get
                0x000000000000a84c        0xa subsys/bluetooth/controller/libsubsys__bluetooth__controller.a(radio.c.obj)
                0x000000000000a84c                radio_tx_ready_delay_get
 .text.radio_tx_chain_delay_get
                0x000000000000a856        0x4 subsys/bluetooth/controller/libsubsys__bluetooth__controller.a(radio.c.obj)
                0x000000000000a856                radio_tx_chain_delay_get
 .text.radio_rx_ready_delay_get
                0x000000000000a85a        0x4 subsys/bluetooth/controller/libsubsys__bluetooth__controller.a(radio.c.obj)
                0x000000000000a85a                radio_rx_ready_delay_get
 .text.radio_rx_chain_delay_get
                0x000000000000a85e        0xa subsys/bluetooth/controller/libsubsys__bluetooth__controller.a(radio.c.obj)
                0x000000000000a85e                radio_rx_chain_delay_get
 .text.radio_rx_enable
                0x000000000000a868        0xc subsys/bluetooth/controller/libsubsys__bluetooth__controller.a(radio.c.obj)
                0x000000000000a868                radio_rx_enable
 .text.radio_tx_enable
                0x000000000000a874        0xc subsys/bluetooth/controller/libsubsys__bluetooth__controller.a(radio.c.obj)
                0x000000000000a874                radio_tx_enable
 .text.radio_disable
                0x000000000000a880       0x24 subsys/bluetooth/controller/libsubsys__bluetooth__controller.a(radio.c.obj)
                0x000000000000a880                radio_disable
 .text.radio_status_reset
                0x000000000000a8a4       0x18 subsys/bluetooth/controller/libsubsys__bluetooth__controller.a(radio.c.obj)
                0x000000000000a8a4                radio_status_reset
 .text.radio_is_ready
                0x000000000000a8bc       0x14 subsys/bluetooth/controller/libsubsys__bluetooth__controller.a(radio.c.obj)
                0x000000000000a8bc                radio_is_ready
 .text.radio_is_done
                0x000000000000a8d0       0x14 subsys/bluetooth/controller/libsubsys__bluetooth__controller.a(radio.c.obj)
                0x000000000000a8d0                radio_is_done
 .text.radio_is_idle
                0x000000000000a8e4       0x14 subsys/bluetooth/controller/libsubsys__bluetooth__controller.a(radio.c.obj)
                0x000000000000a8e4                radio_is_idle
 .text.radio_crc_configure
                0x000000000000a8f8       0x18 subsys/bluetooth/controller/libsubsys__bluetooth__controller.a(radio.c.obj)
                0x000000000000a8f8                radio_crc_configure
 .text.radio_crc_is_valid
                0x000000000000a910       0x14 subsys/bluetooth/controller/libsubsys__bluetooth__controller.a(radio.c.obj)
                0x000000000000a910                radio_crc_is_valid
 .text.radio_pkt_empty_get
                0x000000000000a924        0x8 subsys/bluetooth/controller/libsubsys__bluetooth__controller.a(radio.c.obj)
                0x000000000000a924                radio_pkt_empty_get
 .text.radio_pkt_scratch_get
                0x000000000000a92c        0x8 subsys/bluetooth/controller/libsubsys__bluetooth__controller.a(radio.c.obj)
                0x000000000000a92c                radio_pkt_scratch_get
 .text.radio_switch_complete_and_rx
                0x000000000000a934       0x18 subsys/bluetooth/controller/libsubsys__bluetooth__controller.a(radio.c.obj)
                0x000000000000a934                radio_switch_complete_and_rx
 .text.radio_switch_complete_and_tx
                0x000000000000a94c       0x14 subsys/bluetooth/controller/libsubsys__bluetooth__controller.a(radio.c.obj)
                0x000000000000a94c                radio_switch_complete_and_tx
 .text.radio_switch_complete_and_disable
                0x000000000000a960       0x1c subsys/bluetooth/controller/libsubsys__bluetooth__controller.a(radio.c.obj)
                0x000000000000a960                radio_switch_complete_and_disable
 .text.radio_rssi_measure
                0x000000000000a97c       0x14 subsys/bluetooth/controller/libsubsys__bluetooth__controller.a(radio.c.obj)
                0x000000000000a97c                radio_rssi_measure
 .text.radio_rssi_get
                0x000000000000a990        0xc subsys/bluetooth/controller/libsubsys__bluetooth__controller.a(radio.c.obj)
                0x000000000000a990                radio_rssi_get
 .text.radio_rssi_status_reset
                0x000000000000a99c       0x10 subsys/bluetooth/controller/libsubsys__bluetooth__controller.a(radio.c.obj)
                0x000000000000a99c                radio_rssi_status_reset
 .text.radio_rssi_is_ready
                0x000000000000a9ac       0x14 subsys/bluetooth/controller/libsubsys__bluetooth__controller.a(radio.c.obj)
                0x000000000000a9ac                radio_rssi_is_ready
 .text.radio_filter_configure
                0x000000000000a9c0       0x34 subsys/bluetooth/controller/libsubsys__bluetooth__controller.a(radio.c.obj)
                0x000000000000a9c0                radio_filter_configure
 .text.radio_filter_disable
                0x000000000000a9f4       0x14 subsys/bluetooth/controller/libsubsys__bluetooth__controller.a(radio.c.obj)
                0x000000000000a9f4                radio_filter_disable
 .text.radio_filter_status_reset
                0x000000000000aa08       0x10 subsys/bluetooth/controller/libsubsys__bluetooth__controller.a(radio.c.obj)
                0x000000000000aa08                radio_filter_status_reset
 .text.radio_filter_has_match
                0x000000000000aa18       0x14 subsys/bluetooth/controller/libsubsys__bluetooth__controller.a(radio.c.obj)
                0x000000000000aa18                radio_filter_has_match
 .text.radio_filter_match_get
                0x000000000000aa2c        0xc subsys/bluetooth/controller/libsubsys__bluetooth__controller.a(radio.c.obj)
                0x000000000000aa2c                radio_filter_match_get
 .text.radio_tmr_status_reset
                0x000000000000aa38       0x1c subsys/bluetooth/controller/libsubsys__bluetooth__controller.a(radio.c.obj)
                0x000000000000aa38                radio_tmr_status_reset
 .text.radio_tmr_tifs_set
                0x000000000000aa54       0x18 subsys/bluetooth/controller/libsubsys__bluetooth__controller.a(radio.c.obj)
                0x000000000000aa54                radio_tmr_tifs_set
 .text.radio_tmr_start
                0x000000000000aa6c       0xe4 subsys/bluetooth/controller/libsubsys__bluetooth__controller.a(radio.c.obj)
                0x000000000000aa6c                radio_tmr_start
 .text.radio_tmr_stop
                0x000000000000ab50       0x18 subsys/bluetooth/controller/libsubsys__bluetooth__controller.a(radio.c.obj)
                0x000000000000ab50                radio_tmr_stop
 .text.radio_tmr_hcto_configure
                0x000000000000ab68       0x3c subsys/bluetooth/controller/libsubsys__bluetooth__controller.a(radio.c.obj)
                0x000000000000ab68                radio_tmr_hcto_configure
 .text.radio_tmr_aa_capture
                0x000000000000aba4       0x38 subsys/bluetooth/controller/libsubsys__bluetooth__controller.a(radio.c.obj)
                0x000000000000aba4                radio_tmr_aa_capture
 .text.radio_tmr_aa_get
                0x000000000000abdc        0xc subsys/bluetooth/controller/libsubsys__bluetooth__controller.a(radio.c.obj)
                0x000000000000abdc                radio_tmr_aa_get
 .text.radio_tmr_aa_save
                0x000000000000abe8        0xc subsys/bluetooth/controller/libsubsys__bluetooth__controller.a(radio.c.obj)
                0x000000000000abe8                radio_tmr_aa_save
 .text.radio_tmr_aa_restore
                0x000000000000abf4        0xc subsys/bluetooth/controller/libsubsys__bluetooth__controller.a(radio.c.obj)
                0x000000000000abf4                radio_tmr_aa_restore
 .text.radio_tmr_ready_get
                0x000000000000ac00        0xc subsys/bluetooth/controller/libsubsys__bluetooth__controller.a(radio.c.obj)
                0x000000000000ac00                radio_tmr_ready_get
 .text.radio_tmr_end_capture
                0x000000000000ac0c       0x24 subsys/bluetooth/controller/libsubsys__bluetooth__controller.a(radio.c.obj)
                0x000000000000ac0c                radio_tmr_end_capture
 .text.radio_tmr_end_get
                0x000000000000ac30        0xc subsys/bluetooth/controller/libsubsys__bluetooth__controller.a(radio.c.obj)
                0x000000000000ac30                radio_tmr_end_get
 .text.radio_tmr_tifs_base_get
                0x000000000000ac3c        0xc subsys/bluetooth/controller/libsubsys__bluetooth__controller.a(radio.c.obj)
                0x000000000000ac3c                radio_tmr_tifs_base_get
 .text.radio_ccm_rx_pkt_set
                0x000000000000ac48       0x78 subsys/bluetooth/controller/libsubsys__bluetooth__controller.a(radio.c.obj)
                0x000000000000ac48                radio_ccm_rx_pkt_set
 .text.radio_ccm_tx_pkt_set
                0x000000000000acc0       0x4c subsys/bluetooth/controller/libsubsys__bluetooth__controller.a(radio.c.obj)
                0x000000000000acc0                radio_ccm_tx_pkt_set
 .text.radio_ccm_is_done
                0x000000000000ad0c       0x3c subsys/bluetooth/controller/libsubsys__bluetooth__controller.a(radio.c.obj)
                0x000000000000ad0c                radio_ccm_is_done
 .text.radio_ccm_mic_is_valid
                0x000000000000ad48       0x14 subsys/bluetooth/controller/libsubsys__bluetooth__controller.a(radio.c.obj)
                0x000000000000ad48                radio_ccm_mic_is_valid
 .text.radio_ar_match_get
                0x000000000000ad5c        0xc subsys/bluetooth/controller/libsubsys__bluetooth__controller.a(radio.c.obj)
                0x000000000000ad5c                radio_ar_match_get
 .text.radio_ar_status_reset
                0x000000000000ad68       0x18 subsys/bluetooth/controller/libsubsys__bluetooth__controller.a(radio.c.obj)
                0x000000000000ad68                radio_ar_status_reset
 .text.radio_ar_has_match
                0x000000000000ad80       0x28 subsys/bluetooth/controller/libsubsys__bluetooth__controller.a(radio.c.obj)
                0x000000000000ad80                radio_ar_has_match
 .text.mayfly_enable_cb
                0x000000000000ada8       0x50 subsys/bluetooth/controller/libsubsys__bluetooth__controller.a(mayfly.c.obj)
                0x000000000000ada8                mayfly_enable_cb
 .text.mayfly_is_enabled
                0x000000000000adf8       0x4c subsys/bluetooth/controller/libsubsys__bluetooth__controller.a(mayfly.c.obj)
                0x000000000000adf8                mayfly_is_enabled
 .text.mayfly_prio_is_equal
                0x000000000000ae44       0x22 subsys/bluetooth/controller/libsubsys__bluetooth__controller.a(mayfly.c.obj)
                0x000000000000ae44                mayfly_prio_is_equal
 *fill*         0x000000000000ae66        0x2 
 .text.mayfly_pend
                0x000000000000ae68       0x54 subsys/bluetooth/controller/libsubsys__bluetooth__controller.a(mayfly.c.obj)
                0x000000000000ae68                mayfly_pend
 .text.hal_ticker_instance0_caller_id_get
                0x000000000000aebc       0x5c subsys/bluetooth/controller/libsubsys__bluetooth__controller.a(ticker.c.obj)
                0x000000000000aebc                hal_ticker_instance0_caller_id_get
 .text.hal_ticker_instance0_sched
                0x000000000000af18       0xa4 subsys/bluetooth/controller/libsubsys__bluetooth__controller.a(ticker.c.obj)
                0x000000000000af18                hal_ticker_instance0_sched
 .text.hal_ticker_instance0_trigger_set
                0x000000000000afbc        0x8 subsys/bluetooth/controller/libsubsys__bluetooth__controller.a(ticker.c.obj)
                0x000000000000afbc                hal_ticker_instance0_trigger_set
 .text.fixed_data_unref
                0x000000000000afc4        0x2 subsys/net/libsubsys__net.a(buf.c.obj)
 *fill*         0x000000000000afc6        0x2 
 .text.net_buf_pool_get
                0x000000000000afc8        0xc subsys/net/libsubsys__net.a(buf.c.obj)
                0x000000000000afc8                net_buf_pool_get
 .text.net_buf_id
                0x000000000000afd4       0x1c subsys/net/libsubsys__net.a(buf.c.obj)
                0x000000000000afd4                net_buf_id
 .text.fixed_data_alloc
                0x000000000000aff0       0x2c subsys/net/libsubsys__net.a(buf.c.obj)
 .text.net_buf_alloc_len
                0x000000000000b01c       0xd4 subsys/net/libsubsys__net.a(buf.c.obj)
                0x000000000000b01c                net_buf_alloc_len
 .text.net_buf_alloc_fixed
                0x000000000000b0f0        0xc subsys/net/libsubsys__net.a(buf.c.obj)
                0x000000000000b0f0                net_buf_alloc_fixed
 .text.net_buf_get
                0x000000000000b0fc       0x32 subsys/net/libsubsys__net.a(buf.c.obj)
                0x000000000000b0fc                net_buf_get
 .text.net_buf_simple_reserve
                0x000000000000b12e        0x8 subsys/net/libsubsys__net.a(buf.c.obj)
                0x000000000000b12e                net_buf_simple_reserve
 .text.net_buf_put
                0x000000000000b136       0x1a subsys/net/libsubsys__net.a(buf.c.obj)
                0x000000000000b136                net_buf_put
 .text.net_buf_unref
                0x000000000000b150       0x5c subsys/net/libsubsys__net.a(buf.c.obj)
                0x000000000000b150                net_buf_unref
 .text.net_buf_ref
                0x000000000000b1ac        0x8 subsys/net/libsubsys__net.a(buf.c.obj)
                0x000000000000b1ac                net_buf_ref
 .text.net_buf_simple_add
                0x000000000000b1b4        0xc subsys/net/libsubsys__net.a(buf.c.obj)
                0x000000000000b1b4                net_buf_simple_add
 .text.net_buf_simple_add_mem
                0x000000000000b1c0       0x12 subsys/net/libsubsys__net.a(buf.c.obj)
                0x000000000000b1c0                net_buf_simple_add_mem
 .text.net_buf_simple_add_u8
                0x000000000000b1d2       0x10 subsys/net/libsubsys__net.a(buf.c.obj)
                0x000000000000b1d2                net_buf_simple_add_u8
 .text.net_buf_simple_pull
                0x000000000000b1e2       0x10 subsys/net/libsubsys__net.a(buf.c.obj)
                0x000000000000b1e2                net_buf_simple_pull
 .text.net_buf_simple_pull_u8
                0x000000000000b1f2       0x10 subsys/net/libsubsys__net.a(buf.c.obj)
                0x000000000000b1f2                net_buf_simple_pull_u8
 .text.net_buf_simple_headroom
                0x000000000000b202        0x8 subsys/net/libsubsys__net.a(buf.c.obj)
                0x000000000000b202                net_buf_simple_headroom
 .text.gpio_nrf5_read
                0x000000000000b20a       0x20 drivers/gpio/libdrivers__gpio.a(gpio_nrf5.c.obj)
 .text.gpio_nrf5_write
                0x000000000000b22a       0x22 drivers/gpio/libdrivers__gpio.a(gpio_nrf5.c.obj)
 .text.gpio_nrf5_manage_callback
                0x000000000000b24c       0x42 drivers/gpio/libdrivers__gpio.a(gpio_nrf5.c.obj)
 *fill*         0x000000000000b28e        0x2 
 .text.gpiote_find_channel.isra.4
                0x000000000000b290       0x3c drivers/gpio/libdrivers__gpio.a(gpio_nrf5.c.obj)
 .text.gpio_nrf5_enable_callback
                0x000000000000b2cc       0x48 drivers/gpio/libdrivers__gpio.a(gpio_nrf5.c.obj)
 .text.gpio_nrf5_disable_callback
                0x000000000000b314       0x40 drivers/gpio/libdrivers__gpio.a(gpio_nrf5.c.obj)
 .text.gpio_nrf5_config
                0x000000000000b354      0x118 drivers/gpio/libdrivers__gpio.a(gpio_nrf5.c.obj)
 .text.gpio_nrf5_P0_init
                0x000000000000b46c       0x16 drivers/gpio/libdrivers__gpio.a(gpio_nrf5.c.obj)
 *fill*         0x000000000000b482        0x2 
 .text.gpio_nrf5_port_isr
                0x000000000000b484       0x58 drivers/gpio/libdrivers__gpio.a(gpio_nrf5.c.obj)
 .text.uart_nrfx_err_check
                0x000000000000b4dc       0x14 drivers/serial/libdrivers__serial.a(uart_nrfx_uart.c.obj)
 .text.uart_nrfx_poll_out
                0x000000000000b4f0       0x28 drivers/serial/libdrivers__serial.a(uart_nrfx_uart.c.obj)
 .text.uart_nrfx_poll_in
                0x000000000000b518       0x2c drivers/serial/libdrivers__serial.a(uart_nrfx_uart.c.obj)
 .text.uart_nrfx_init
                0x000000000000b544       0x80 drivers/serial/libdrivers__serial.a(uart_nrfx_uart.c.obj)
 .text.get      0x000000000000b5c4       0xc4 drivers/entropy/libdrivers__entropy.a(entropy_nrf5.c.obj)
 .text.isr      0x000000000000b688       0x48 drivers/entropy/libdrivers__entropy.a(entropy_nrf5.c.obj)
 .text.entropy_nrf5_get_entropy_isr
                0x000000000000b6d0       0x44 drivers/entropy/libdrivers__entropy.a(entropy_nrf5.c.obj)
 .text.entropy_nrf5_init
                0x000000000000b714       0x74 drivers/entropy/libdrivers__entropy.a(entropy_nrf5.c.obj)
 .text.isr_rand
                0x000000000000b788       0x50 drivers/entropy/libdrivers__entropy.a(entropy_nrf5.c.obj)
 .text.entropy_nrf5_get_entropy
                0x000000000000b7d8       0x54 drivers/entropy/libdrivers__entropy.a(entropy_nrf5.c.obj)
 .text.entropy_nrf_get_entropy_isr
                0x000000000000b82c       0x10 drivers/entropy/libdrivers__entropy.a(entropy_nrf5.c.obj)
                0x000000000000b82c                entropy_nrf_get_entropy_isr
 .text._sys_device_do_config_level
                0x000000000000b83c       0x28 kernel/libkernel.a(device.c.obj)
                0x000000000000b83c                _sys_device_do_config_level
 .text.device_get_binding
                0x000000000000b864       0x4c kernel/libkernel.a(device.c.obj)
                0x000000000000b864                device_get_binding
 .text._sys_power_save_idle_exit
                0x000000000000b8b0       0x18 kernel/libkernel.a(idle.c.obj)
                0x000000000000b8b0                _sys_power_save_idle_exit
 .text.idle     0x000000000000b8c8       0x48 kernel/libkernel.a(idle.c.obj)
                0x000000000000b8c8                idle
 .text._bss_zero
                0x000000000000b910       0x14 kernel/libkernel.a(init.c.obj)
                0x000000000000b910                _bss_zero
 .text._data_copy
                0x000000000000b924       0x18 kernel/libkernel.a(init.c.obj)
                0x000000000000b924                _data_copy
 .text.bg_thread_main
                0x000000000000b93c       0x30 kernel/libkernel.a(init.c.obj)
 .text._Cstart  0x000000000000b96c       0xfc kernel/libkernel.a(init.c.obj)
                0x000000000000b96c                _Cstart
 .text.init_static_pools
                0x000000000000ba68       0x28 kernel/libkernel.a(mempool.c.obj)
                0x000000000000ba68                init_static_pools
 .text.k_mem_pool_alloc
                0x000000000000ba90       0xb8 kernel/libkernel.a(mempool.c.obj)
                0x000000000000ba90                k_mem_pool_alloc
 .text.k_mem_pool_free_id
                0x000000000000bb48       0x60 kernel/libkernel.a(mempool.c.obj)
                0x000000000000bb48                k_mem_pool_free_id
 .text.k_mem_pool_malloc
                0x000000000000bba8       0x2a kernel/libkernel.a(mempool.c.obj)
                0x000000000000bba8                k_mem_pool_malloc
 .text.k_free   0x000000000000bbd2        0xa kernel/libkernel.a(mempool.c.obj)
                0x000000000000bbd2                k_free
 .text.z_thread_malloc
                0x000000000000bbdc       0x14 kernel/libkernel.a(mempool.c.obj)
                0x000000000000bbdc                z_thread_malloc
 .text.queue_insert
                0x000000000000bbf0       0x90 kernel/libkernel.a(queue.c.obj)
 .text.z_queue_node_peek
                0x000000000000bc80       0x18 kernel/libkernel.a(queue.c.obj)
                0x000000000000bc80                z_queue_node_peek
 .text._impl_k_queue_init
                0x000000000000bc98       0x10 kernel/libkernel.a(queue.c.obj)
                0x000000000000bc98                _impl_k_queue_init
 .text.k_queue_append
                0x000000000000bca8        0xa kernel/libkernel.a(queue.c.obj)
                0x000000000000bca8                k_queue_append
 .text.k_queue_prepend
                0x000000000000bcb2        0xa kernel/libkernel.a(queue.c.obj)
                0x000000000000bcb2                k_queue_prepend
 .text.k_queue_append_list
                0x000000000000bcbc       0x34 kernel/libkernel.a(queue.c.obj)
                0x000000000000bcbc                k_queue_append_list
 .text._impl_k_queue_get
                0x000000000000bcf0       0xbc kernel/libkernel.a(queue.c.obj)
                0x000000000000bcf0                _impl_k_queue_get
 .text.sys_dlist_remove
                0x000000000000bdac        0xc kernel/libkernel.a(sched.c.obj)
 .text._abort_timeout
                0x000000000000bdb8       0x30 kernel/libkernel.a(sched.c.obj)
 .text.k_spin_lock.isra.11
                0x000000000000bde8        0xe kernel/libkernel.a(sched.c.obj)
 *fill*         0x000000000000bdf6        0x2 
 .text.update_cache
                0x000000000000bdf8       0x40 kernel/libkernel.a(sched.c.obj)
 .text._is_t1_higher_prio_than_t2
                0x000000000000be38       0x12 kernel/libkernel.a(sched.c.obj)
                0x000000000000be38                _is_t1_higher_prio_than_t2
 *fill*         0x000000000000be4a        0x2 
 .text._remove_thread_from_ready_q
                0x000000000000be4c       0x38 kernel/libkernel.a(sched.c.obj)
                0x000000000000be4c                _remove_thread_from_ready_q
 .text._find_first_thread_to_unpend
                0x000000000000be84       0x18 kernel/libkernel.a(sched.c.obj)
                0x000000000000be84                _find_first_thread_to_unpend
 .text._unpend_thread_no_timeout
                0x000000000000be9c       0x1e kernel/libkernel.a(sched.c.obj)
                0x000000000000be9c                _unpend_thread_no_timeout
 .text._unpend_first_thread
                0x000000000000beba       0x1c kernel/libkernel.a(sched.c.obj)
                0x000000000000beba                _unpend_first_thread
 .text._unpend_thread
                0x000000000000bed6       0x14 kernel/libkernel.a(sched.c.obj)
                0x000000000000bed6                _unpend_thread
 *fill*         0x000000000000beea        0x2 
 .text._reschedule
                0x000000000000beec       0x3c kernel/libkernel.a(sched.c.obj)
                0x000000000000beec                _reschedule
 .text.k_sched_unlock
                0x000000000000bf28       0x34 kernel/libkernel.a(sched.c.obj)
                0x000000000000bf28                k_sched_unlock
 .text._priq_dumb_add
                0x000000000000bf5c       0x40 kernel/libkernel.a(sched.c.obj)
                0x000000000000bf5c                _priq_dumb_add
 .text._add_thread_to_ready_q
                0x000000000000bf9c       0x2c kernel/libkernel.a(sched.c.obj)
                0x000000000000bf9c                _add_thread_to_ready_q
 .text._ready_thread
                0x000000000000bfc8       0x12 kernel/libkernel.a(sched.c.obj)
 *fill*         0x000000000000bfda        0x2 
 .text._add_timeout
                0x000000000000bfdc       0x9c kernel/libkernel.a(sched.c.obj)
 .text._move_thread_to_end_of_prio_q
                0x000000000000c078       0x30 kernel/libkernel.a(sched.c.obj)
                0x000000000000c078                _move_thread_to_end_of_prio_q
 .text.pend     0x000000000000c0a8       0x4e kernel/libkernel.a(sched.c.obj)
 *fill*         0x000000000000c0f6        0x2 
 .text._pend_current_thread
                0x000000000000c0f8       0x24 kernel/libkernel.a(sched.c.obj)
                0x000000000000c0f8                _pend_current_thread
 .text._is_thread_time_slicing
                0x000000000000c11c       0x5c kernel/libkernel.a(sched.c.obj)
                0x000000000000c11c                _is_thread_time_slicing
 .text._update_time_slice_before_swap
                0x000000000000c178        0xc kernel/libkernel.a(sched.c.obj)
                0x000000000000c178                _update_time_slice_before_swap
 .text._unpend_all
                0x000000000000c184       0x20 kernel/libkernel.a(sched.c.obj)
                0x000000000000c184                _unpend_all
 .text._sched_init
                0x000000000000c1a4       0x10 kernel/libkernel.a(sched.c.obj)
                0x000000000000c1a4                _sched_init
 .text._impl_k_yield
                0x000000000000c1b4       0x60 kernel/libkernel.a(sched.c.obj)
                0x000000000000c1b4                _impl_k_yield
 .text._impl_k_sleep
                0x000000000000c214       0x50 kernel/libkernel.a(sched.c.obj)
                0x000000000000c214                _impl_k_sleep
 .text._impl_k_current_get
                0x000000000000c264        0xc kernel/libkernel.a(sched.c.obj)
                0x000000000000c264                _impl_k_current_get
 .text._impl_k_sem_init
                0x000000000000c270       0x12 kernel/libkernel.a(sem.c.obj)
                0x000000000000c270                _impl_k_sem_init
 .text._impl_k_sem_give
                0x000000000000c282       0x50 kernel/libkernel.a(sem.c.obj)
                0x000000000000c282                _impl_k_sem_give
 .text._impl_k_sem_take
                0x000000000000c2d2       0x38 kernel/libkernel.a(sem.c.obj)
                0x000000000000c2d2                _impl_k_sem_take
 *fill*         0x000000000000c30a        0x2 
 .text._impl_k_uptime_get_32
                0x000000000000c30c       0x14 kernel/libkernel.a(sys_clock.c.obj)
                0x000000000000c30c                _impl_k_uptime_get_32
 .text._tick_get
                0x000000000000c320       0x1c kernel/libkernel.a(sys_clock.c.obj)
                0x000000000000c320                sys_tick_get
                0x000000000000c320                _tick_get
 .text._nano_sys_clock_tick_announce
                0x000000000000c33c      0x1b0 kernel/libkernel.a(sys_clock.c.obj)
                0x000000000000c33c                _nano_sys_clock_tick_announce
 .text.k_sys_work_q_init
                0x000000000000c4ec       0x20 kernel/libkernel.a(system_work_q.c.obj)
 .text._abort_timeout
                0x000000000000c50c       0x34 kernel/libkernel.a(thread.c.obj)
 .text._ready_thread
                0x000000000000c540       0x12 kernel/libkernel.a(thread.c.obj)
 *fill*         0x000000000000c552        0x2 
 .text.schedule_new_thread.part.11
                0x000000000000c554       0x78 kernel/libkernel.a(thread.c.obj)
 .text.k_is_in_isr
                0x000000000000c5cc       0x20 kernel/libkernel.a(thread.c.obj)
                0x000000000000c5cc                k_is_in_isr
 .text._is_thread_essential
                0x000000000000c5ec       0x10 kernel/libkernel.a(thread.c.obj)
                0x000000000000c5ec                _is_thread_essential
 .text._impl_k_thread_start
                0x000000000000c5fc       0x2e kernel/libkernel.a(thread.c.obj)
                0x000000000000c5fc                _impl_k_thread_start
 *fill*         0x000000000000c62a        0x2 
 .text._setup_new_thread
                0x000000000000c62c       0x34 kernel/libkernel.a(thread.c.obj)
                0x000000000000c62c                _setup_new_thread
 .text._impl_k_thread_create
                0x000000000000c660       0x3c kernel/libkernel.a(thread.c.obj)
                0x000000000000c660                _impl_k_thread_create
 .text._k_thread_single_abort
                0x000000000000c69c       0x40 kernel/libkernel.a(thread.c.obj)
                0x000000000000c69c                _k_thread_single_abort
 .text._init_static_threads
                0x000000000000c6dc       0x94 kernel/libkernel.a(thread.c.obj)
                0x000000000000c6dc                _init_static_threads
 .text._init_thread_base
                0x000000000000c770       0x18 kernel/libkernel.a(thread.c.obj)
                0x000000000000c770                _init_thread_base
 .text.work_q_main
                0x000000000000c788       0x3e kernel/libkernel.a(work_q.c.obj)
 *fill*         0x000000000000c7c6        0x2 
 .text.k_work_q_start
                0x000000000000c7c8       0x34 kernel/libkernel.a(work_q.c.obj)
                0x000000000000c7c8                k_work_q_start
 .text.clear_event_registrations
                0x000000000000c7fc       0x44 kernel/libkernel.a(poll.c.obj)
 .text.signal_poll_event
                0x000000000000c840       0x58 kernel/libkernel.a(poll.c.obj)
 .text.add_event
                0x000000000000c898       0x5e kernel/libkernel.a(poll.c.obj)
 .text.k_poll_event_init
                0x000000000000c8f6       0x26 kernel/libkernel.a(poll.c.obj)
                0x000000000000c8f6                k_poll_event_init
 .text._impl_k_poll
                0x000000000000c91c      0x108 kernel/libkernel.a(poll.c.obj)
                0x000000000000c91c                _impl_k_poll
 .text._handle_obj_poll_events
                0x000000000000ca24       0x18 kernel/libkernel.a(poll.c.obj)
                0x000000000000ca24                _handle_obj_poll_events
 .text._OffsetAbsSyms
                0x000000000000ca3c        0x2 CMakeFiles/offsets.dir/arch/arm/core/offsets/offsets.c.obj
                0x000000000000ca3c                _OffsetAbsSyms
 *(.gnu.linkonce.t.*)
                0x000000000000ca3e                _image_text_end = .

.glue_7         0x000000000000ca40        0x0
 .glue_7        0x000000000000ca40        0x0 linker stubs

.glue_7t        0x000000000000ca40        0x0
 .glue_7t       0x000000000000ca40        0x0 linker stubs

.vfp11_veneer   0x000000000000ca40        0x0
 .vfp11_veneer  0x000000000000ca40        0x0 linker stubs

.v4_bx          0x000000000000ca40        0x0
 .v4_bx         0x000000000000ca40        0x0 linker stubs

.iplt           0x000000000000ca40        0x0
 .iplt          0x000000000000ca40        0x0 CMakeFiles/kernel_elf.dir/isr_tables.c.obj

.igot.plt       0x000000000000ca40        0x0
 .igot.plt      0x000000000000ca40        0x0 CMakeFiles/kernel_elf.dir/isr_tables.c.obj

.ARM.exidx      0x000000000000ca40        0x8
                0x000000000000ca40                __exidx_start = .
 *(.ARM.exidx* gnu.linkonce.armexidx.*)
 .ARM.exidx     0x000000000000ca40        0x8 /opt/zephyr-sdk/sysroots/armv5-zephyr-eabi/usr/lib/arm-zephyr-eabi/6.2.0/armv7e-m/libgcc.a(_udivmoddi4.o)
                0x000000000000ca48                __exidx_end = .
                0x000000000000ca48                _image_rodata_start = .

devconfig       0x000000000000ca48       0x90
                0x000000000000ca48                __devconfig_start = .
 *(.devconfig.*)
 .devconfig.init
                0x000000000000ca48        0xc libzephyr.a(soc.c.obj)
 .devconfig.init
                0x000000000000ca54        0xc libzephyr.a(uart_console.c.obj)
 .devconfig.init
                0x000000000000ca60       0x18 libzephyr.a(nrf5_power_clock.c.obj)
 .devconfig.init
                0x000000000000ca78        0xc libzephyr.a(sys_clock_init.c.obj)
 .devconfig.init
                0x000000000000ca84        0xc arch/arm/core/cortex_m/mpu/libarch__arm__core__cortex_m__mpu.a(arm_mpu.c.obj)
 .devconfig.init
                0x000000000000ca90        0xc subsys/bluetooth/controller/libsubsys__bluetooth__controller.a(hci_driver.c.obj)
 .devconfig.init
                0x000000000000ca9c        0xc drivers/gpio/libdrivers__gpio.a(gpio_nrf5.c.obj)
 .devconfig.init
                0x000000000000caa8        0xc drivers/serial/libdrivers__serial.a(uart_nrfx_uart.c.obj)
 .devconfig.init
                0x000000000000cab4        0xc drivers/entropy/libdrivers__entropy.a(entropy_nrf5.c.obj)
 .devconfig.init
                0x000000000000cac0        0xc kernel/libkernel.a(mempool.c.obj)
 .devconfig.init
                0x000000000000cacc        0xc kernel/libkernel.a(system_work_q.c.obj)
 *(SORT(.devconfig*))
                0x000000000000cad8                __devconfig_end = .

net_l2          0x000000000000cad8        0x0
                0x000000000000cad8                __net_l2_start = .
 *(.net_l2.init)
 *(SORT(.net_l2.init*))
                0x000000000000cad8                __net_l2_end = .

rodata          0x000000000000cad8     0x22fc
 *(.rodata)
 .rodata        0x000000000000cad8        0xc ../libapp.a(main.c.obj)
 .rodata        0x000000000000cae4       0x2f subsys/bluetooth/host/libsubsys__bluetooth__host.a(hci_core.c.obj)
 .rodata        0x000000000000cb13       0x1a subsys/bluetooth/controller/libsubsys__bluetooth__controller.a(ctrl.c.obj)
 *(.rodata.*)
 *fill*         0x000000000000cb2d        0x3 
 .rodata.ad     0x000000000000cb30        0x8 ../libapp.a(main.c.obj)
 .rodata.main.str1.1
                0x000000000000cb38       0xc7 ../libapp.a(main.c.obj)
 .rodata.str1.1
                0x000000000000cbff        0xf libzephyr.a(mpu_regions.c.obj)
 .rodata.str1.1
                0x000000000000cc0e        0xf libzephyr.a(soc.c.obj)
                                          0x1 (size before relaxing)
 .rodata.sys_rand32_get.str1.1
                0x000000000000cc0e        0xa libzephyr.a(rand32_entropy_device.c.obj)
 .rodata.str1.1
                0x000000000000cc18        0x1 libzephyr.a(uart_console.c.obj)
 .rodata.uart_console_init.str1.1
                0x000000000000cc18        0x7 libzephyr.a(uart_console.c.obj)
 *fill*         0x000000000000cc1f        0x1 
 .rodata._k32src_clock_control_api
                0x000000000000cc20        0xc libzephyr.a(nrf5_power_clock.c.obj)
 .rodata._m16src_clock_control_api
                0x000000000000cc2c        0xc libzephyr.a(nrf5_power_clock.c.obj)
 .rodata.str1.1
                0x000000000000cc38       0x16 libzephyr.a(nrf5_power_clock.c.obj)
 .rodata.str1.1
                0x000000000000cc4e        0xa libzephyr.a(sys_clock_init.c.obj)
 .rodata._sys_clock_driver_init.str1.1
                0x000000000000cc58        0xb libzephyr.a(nrf_rtc_timer.c.obj)
 .rodata._BusFault.str1.1
                0x000000000000cc58       0x66 arch/arm/core/libarch__arm__core.a(fault.c.obj)
 .rodata._Fault.str1.1
                0x000000000000ccbe       0xd3 arch/arm/core/libarch__arm__core.a(fault.c.obj)
 .rodata._FaultThreadShow.isra.2.str1.1
                0x000000000000cd91       0x4a arch/arm/core/libarch__arm__core.a(fault.c.obj)
 .rodata._MpuFault.str1.1
                0x000000000000cddb       0xb7 arch/arm/core/libarch__arm__core.a(fault.c.obj)
 .rodata._UsageFault.str1.1
                0x000000000000ce92       0xd4 arch/arm/core/libarch__arm__core.a(fault.c.obj)
 .rodata._NanoFatalErrorHandler.str1.1
                0x000000000000cf66       0xba arch/arm/core/libarch__arm__core.a(fatal.c.obj)
 .rodata._SysFatalErrorHandler.str1.1
                0x000000000000d020       0x5a arch/arm/core/libarch__arm__core.a(sys_fatal_error_handler.c.obj)
 .rodata.str1.1
                0x000000000000d07a        0x1 arch/arm/core/cortex_m/mpu/libarch__arm__core__cortex_m__mpu.a(arm_mpu.c.obj)
 .rodata.bt_addr_le_str.str1.1
                0x000000000000d07a       0x4c subsys/bluetooth/common/libsubsys__bluetooth__common.a(log.c.obj)
 .rodata.bt_addr_str.str1.1
                0x000000000000d0c6       0x1e subsys/bluetooth/common/libsubsys__bluetooth__common.a(log.c.obj)
 .rodata.hex.7890
                0x000000000000d0e4       0x11 subsys/bluetooth/common/libsubsys__bluetooth__common.a(log.c.obj)
 .rodata.__func__.10985
                0x000000000000d0f5       0x10 subsys/bluetooth/host/libsubsys__bluetooth__host.a(hci_core.c.obj)
 .rodata.__func__.11047
                0x000000000000d105        0xd subsys/bluetooth/host/libsubsys__bluetooth__host.a(hci_core.c.obj)
 .rodata.__func__.11094
                0x000000000000d112       0x12 subsys/bluetooth/host/libsubsys__bluetooth__host.a(hci_core.c.obj)
 .rodata.__func__.11104
                0x000000000000d124        0xa subsys/bluetooth/host/libsubsys__bluetooth__host.a(hci_core.c.obj)
 .rodata.__func__.11113
                0x000000000000d12e        0x9 subsys/bluetooth/host/libsubsys__bluetooth__host.a(hci_core.c.obj)
 .rodata.__func__.11118
                0x000000000000d137        0xf subsys/bluetooth/host/libsubsys__bluetooth__host.a(hci_core.c.obj)
 .rodata.__func__.11134
                0x000000000000d146        0xe subsys/bluetooth/host/libsubsys__bluetooth__host.a(hci_core.c.obj)
 .rodata.__func__.11186
                0x000000000000d154        0x8 subsys/bluetooth/host/libsubsys__bluetooth__host.a(hci_core.c.obj)
 .rodata.__func__.11215
                0x000000000000d15c       0x13 subsys/bluetooth/host/libsubsys__bluetooth__host.a(hci_core.c.obj)
 .rodata.__func__.11222
                0x000000000000d16f        0xe subsys/bluetooth/host/libsubsys__bluetooth__host.a(hci_core.c.obj)
 .rodata.__func__.11231
                0x000000000000d17d       0x11 subsys/bluetooth/host/libsubsys__bluetooth__host.a(hci_core.c.obj)
 .rodata.__func__.11256
                0x000000000000d18e        0xc subsys/bluetooth/host/libsubsys__bluetooth__host.a(hci_core.c.obj)
 .rodata.__func__.11261
                0x000000000000d19a        0x9 subsys/bluetooth/host/libsubsys__bluetooth__host.a(hci_core.c.obj)
 .rodata.__func__.11271
                0x000000000000d1a3        0x8 subsys/bluetooth/host/libsubsys__bluetooth__host.a(hci_core.c.obj)
 .rodata.__func__.11278
                0x000000000000d1ab        0xd subsys/bluetooth/host/libsubsys__bluetooth__host.a(hci_core.c.obj)
 .rodata.__func__.11299
                0x000000000000d1b8        0xa subsys/bluetooth/host/libsubsys__bluetooth__host.a(hci_core.c.obj)
 .rodata.bt_dev_show_info.str1.1
                0x000000000000d1c2       0xa9 subsys/bluetooth/host/libsubsys__bluetooth__host.a(hci_core.c.obj)
 .rodata.bt_enable.str1.1
                0x000000000000d26b       0x55 subsys/bluetooth/host/libsubsys__bluetooth__host.a(hci_core.c.obj)
 .rodata.bt_hci_cmd_send.str1.1
                0x000000000000d2c0       0x32 subsys/bluetooth/host/libsubsys__bluetooth__host.a(hci_core.c.obj)
 .rodata.bt_recv.str1.1
                0x000000000000d2f2       0xca subsys/bluetooth/host/libsubsys__bluetooth__host.a(hci_core.c.obj)
 .rodata.bt_recv_prio.str1.1
                0x000000000000d3bc       0xdf subsys/bluetooth/host/libsubsys__bluetooth__host.a(hci_core.c.obj)
 .rodata.bt_set_static_addr.str1.1
                0x000000000000d49b       0x48 subsys/bluetooth/host/libsubsys__bluetooth__host.a(hci_core.c.obj)
 .rodata.hci_cmd_done.str1.1
                0x000000000000d4e3       0x92 subsys/bluetooth/host/libsubsys__bluetooth__host.a(hci_core.c.obj)
                                         0x93 (size before relaxing)
 .rodata.hci_init.str1.1
                0x000000000000d575      0x275 subsys/bluetooth/host/libsubsys__bluetooth__host.a(hci_core.c.obj)
 .rodata.hci_tx_thread.str1.1
                0x000000000000d7ea       0xab subsys/bluetooth/host/libsubsys__bluetooth__host.a(hci_core.c.obj)
 *fill*         0x000000000000d895        0x3 
 .rodata.net_buf_fixed_alloc_hci_cmd_pool
                0x000000000000d898        0x8 subsys/bluetooth/host/libsubsys__bluetooth__host.a(hci_core.c.obj)
 .rodata.net_buf_fixed_alloc_hci_rx_pool
                0x000000000000d8a0        0x8 subsys/bluetooth/host/libsubsys__bluetooth__host.a(hci_core.c.obj)
 .rodata.net_buf_fixed_hci_cmd_pool
                0x000000000000d8a8        0x8 subsys/bluetooth/host/libsubsys__bluetooth__host.a(hci_core.c.obj)
 .rodata.net_buf_fixed_hci_rx_pool
                0x000000000000d8b0        0x8 subsys/bluetooth/host/libsubsys__bluetooth__host.a(hci_core.c.obj)
 .rodata.nordic_str.11240
                0x000000000000d8b8        0xc subsys/bluetooth/host/libsubsys__bluetooth__host.a(hci_core.c.obj)
 .rodata.plat_str.11235
                0x000000000000d8c4       0x10 subsys/bluetooth/host/libsubsys__bluetooth__host.a(hci_core.c.obj)
 .rodata.str1.1
                0x000000000000d8d4       0xd0 subsys/bluetooth/host/libsubsys__bluetooth__host.a(hci_core.c.obj)
 .rodata.var_str.11244
                0x000000000000d9a4       0x10 subsys/bluetooth/host/libsubsys__bluetooth__host.a(hci_core.c.obj)
 .rodata.ver_str.str1.1
                0x000000000000d9b4        0x8 subsys/bluetooth/host/libsubsys__bluetooth__host.a(hci_core.c.obj)
 .rodata.__func__.10416
                0x000000000000d9bc       0x1a subsys/bluetooth/controller/libsubsys__bluetooth__controller.a(ticker.c.obj)
 .rodata.ticker_job.str1.1
                0x000000000000d9d6       0x23 subsys/bluetooth/controller/libsubsys__bluetooth__controller.a(ticker.c.obj)
                                         0x2e (size before relaxing)
 .rodata.__func__.10944
                0x000000000000d9f9        0xc subsys/bluetooth/controller/libsubsys__bluetooth__controller.a(hci_driver.c.obj)
 .rodata.__func__.10970
                0x000000000000da05       0x10 subsys/bluetooth/controller/libsubsys__bluetooth__controller.a(hci_driver.c.obj)
 .rodata.__func__.10978
                0x000000000000da15       0x10 subsys/bluetooth/controller/libsubsys__bluetooth__controller.a(hci_driver.c.obj)
 *fill*         0x000000000000da25        0x3 
 .rodata.drv    0x000000000000da28       0x14 subsys/bluetooth/controller/libsubsys__bluetooth__controller.a(hci_driver.c.obj)
 .rodata.hci_driver_open.str1.1
                0x000000000000da3c       0x2d subsys/bluetooth/controller/libsubsys__bluetooth__controller.a(hci_driver.c.obj)
 .rodata.hci_driver_send.str1.1
                0x000000000000da69       0x45 subsys/bluetooth/controller/libsubsys__bluetooth__controller.a(hci_driver.c.obj)
 .rodata.recv_thread.str1.1
                0x000000000000daae       0x2e subsys/bluetooth/controller/libsubsys__bluetooth__controller.a(hci_driver.c.obj)
 .rodata.str1.1
                0x000000000000daae        0xb subsys/bluetooth/controller/libsubsys__bluetooth__controller.a(hci_driver.c.obj)
 .rodata.__func__.11102
                0x000000000000dab9        0xf subsys/bluetooth/controller/libsubsys__bluetooth__controller.a(hci.c.obj)
 .rodata.__func__.11150
                0x000000000000dac8       0x12 subsys/bluetooth/controller/libsubsys__bluetooth__controller.a(hci.c.obj)
 .rodata.__func__.11179
                0x000000000000dada       0x15 subsys/bluetooth/controller/libsubsys__bluetooth__controller.a(hci.c.obj)
 .rodata.__func__.11193
                0x000000000000daef        0xf subsys/bluetooth/controller/libsubsys__bluetooth__controller.a(hci.c.obj)
 .rodata.__func__.11209
                0x000000000000dafe        0xf subsys/bluetooth/controller/libsubsys__bluetooth__controller.a(hci.c.obj)
 .rodata.__func__.11228
                0x000000000000db0d       0x11 subsys/bluetooth/controller/libsubsys__bluetooth__controller.a(hci.c.obj)
 .rodata.bt_addr_le_to_str.constprop.43.str1.1
                0x000000000000db1e       0x4c subsys/bluetooth/controller/libsubsys__bluetooth__controller.a(hci.c.obj)
 .rodata.hci_cmd_handle.str1.1
                0x000000000000db1e       0x7c subsys/bluetooth/controller/libsubsys__bluetooth__controller.a(hci.c.obj)
                                         0x83 (size before relaxing)
 .rodata.hci_evt_encode.str1.1
                0x000000000000db9a       0x50 subsys/bluetooth/controller/libsubsys__bluetooth__controller.a(hci.c.obj)
                                         0x73 (size before relaxing)
 .rodata.le_adv_ext_report.isra.39.str1.1
                0x000000000000dbea       0xb5 subsys/bluetooth/controller/libsubsys__bluetooth__controller.a(hci.c.obj)
                                         0xc0 (size before relaxing)
 .rodata.__func__.11435
                0x000000000000dc9f        0xc subsys/bluetooth/controller/libsubsys__bluetooth__controller.a(ctrl.c.obj)
 .rodata.__func__.11455
                0x000000000000dcab       0x13 subsys/bluetooth/controller/libsubsys__bluetooth__controller.a(ctrl.c.obj)
 .rodata.__func__.11506
                0x000000000000dcbe        0xb subsys/bluetooth/controller/libsubsys__bluetooth__controller.a(ctrl.c.obj)
 .rodata.__func__.11529
                0x000000000000dcc9       0x13 subsys/bluetooth/controller/libsubsys__bluetooth__controller.a(ctrl.c.obj)
 .rodata.__func__.11580
                0x000000000000dcdc        0xc subsys/bluetooth/controller/libsubsys__bluetooth__controller.a(ctrl.c.obj)
 .rodata.__func__.11593
                0x000000000000dce8       0x14 subsys/bluetooth/controller/libsubsys__bluetooth__controller.a(ctrl.c.obj)
 .rodata.__func__.11656
                0x000000000000dcfc       0x10 subsys/bluetooth/controller/libsubsys__bluetooth__controller.a(ctrl.c.obj)
 .rodata.__func__.11677
                0x000000000000dd0c        0xc subsys/bluetooth/controller/libsubsys__bluetooth__controller.a(ctrl.c.obj)
 .rodata.__func__.11697
                0x000000000000dd18       0x13 subsys/bluetooth/controller/libsubsys__bluetooth__controller.a(ctrl.c.obj)
 .rodata.__func__.11705
                0x000000000000dd2b        0xe subsys/bluetooth/controller/libsubsys__bluetooth__controller.a(ctrl.c.obj)
 .rodata.__func__.11728
                0x000000000000dd39        0xf subsys/bluetooth/controller/libsubsys__bluetooth__controller.a(ctrl.c.obj)
 .rodata.__func__.11739
                0x000000000000dd48       0x16 subsys/bluetooth/controller/libsubsys__bluetooth__controller.a(ctrl.c.obj)
 .rodata.__func__.11759
                0x000000000000dd5e        0x4 subsys/bluetooth/controller/libsubsys__bluetooth__controller.a(ctrl.c.obj)
 .rodata.__func__.11772
                0x000000000000dd62       0x16 subsys/bluetooth/controller/libsubsys__bluetooth__controller.a(ctrl.c.obj)
 .rodata.__func__.11777
                0x000000000000dd78       0x17 subsys/bluetooth/controller/libsubsys__bluetooth__controller.a(ctrl.c.obj)
 .rodata.__func__.11782
                0x000000000000dd8f       0x18 subsys/bluetooth/controller/libsubsys__bluetooth__controller.a(ctrl.c.obj)
 .rodata.__func__.11787
                0x000000000000dda7       0x19 subsys/bluetooth/controller/libsubsys__bluetooth__controller.a(ctrl.c.obj)
 .rodata.__func__.11793
                0x000000000000ddc0       0x1b subsys/bluetooth/controller/libsubsys__bluetooth__controller.a(ctrl.c.obj)
 .rodata.__func__.11798
                0x000000000000dddb       0x14 subsys/bluetooth/controller/libsubsys__bluetooth__controller.a(ctrl.c.obj)
 .rodata.__func__.11808
                0x000000000000ddef        0xd subsys/bluetooth/controller/libsubsys__bluetooth__controller.a(ctrl.c.obj)
 .rodata.__func__.11821
                0x000000000000ddfc        0xf subsys/bluetooth/controller/libsubsys__bluetooth__controller.a(ctrl.c.obj)
 .rodata.__func__.11834
                0x000000000000de0b        0xb subsys/bluetooth/controller/libsubsys__bluetooth__controller.a(ctrl.c.obj)
 .rodata.__func__.11846
                0x000000000000de16       0x13 subsys/bluetooth/controller/libsubsys__bluetooth__controller.a(ctrl.c.obj)
 .rodata.__func__.11873
                0x000000000000de29       0x13 subsys/bluetooth/controller/libsubsys__bluetooth__controller.a(ctrl.c.obj)
 .rodata.__func__.11902
                0x000000000000de3c       0x16 subsys/bluetooth/controller/libsubsys__bluetooth__controller.a(ctrl.c.obj)
 .rodata.__func__.11930
                0x000000000000de52       0x1f subsys/bluetooth/controller/libsubsys__bluetooth__controller.a(ctrl.c.obj)
 .rodata.__func__.11945
                0x000000000000de71       0x21 subsys/bluetooth/controller/libsubsys__bluetooth__controller.a(ctrl.c.obj)
 .rodata.__func__.11963
                0x000000000000de92       0x12 subsys/bluetooth/controller/libsubsys__bluetooth__controller.a(ctrl.c.obj)
 .rodata.__func__.11973
                0x000000000000dea4        0xb subsys/bluetooth/controller/libsubsys__bluetooth__controller.a(ctrl.c.obj)
 .rodata.__func__.11989
                0x000000000000deaf       0x15 subsys/bluetooth/controller/libsubsys__bluetooth__controller.a(ctrl.c.obj)
 .rodata.__func__.12059
                0x000000000000dec4        0x9 subsys/bluetooth/controller/libsubsys__bluetooth__controller.a(ctrl.c.obj)
 .rodata.__func__.12090
                0x000000000000decd       0x18 subsys/bluetooth/controller/libsubsys__bluetooth__controller.a(ctrl.c.obj)
 .rodata.__func__.12110
                0x000000000000dee5        0xa subsys/bluetooth/controller/libsubsys__bluetooth__controller.a(ctrl.c.obj)
 .rodata.__func__.12119
                0x000000000000deef       0x10 subsys/bluetooth/controller/libsubsys__bluetooth__controller.a(ctrl.c.obj)
 .rodata.__func__.12133
                0x000000000000deff       0x1c subsys/bluetooth/controller/libsubsys__bluetooth__controller.a(ctrl.c.obj)
 .rodata.__func__.12147
                0x000000000000df1b       0x15 subsys/bluetooth/controller/libsubsys__bluetooth__controller.a(ctrl.c.obj)
 .rodata.__func__.12155
                0x000000000000df30        0xf subsys/bluetooth/controller/libsubsys__bluetooth__controller.a(ctrl.c.obj)
 .rodata.__func__.12162
                0x000000000000df3f       0x13 subsys/bluetooth/controller/libsubsys__bluetooth__controller.a(ctrl.c.obj)
 .rodata.__func__.12176
                0x000000000000df52        0xb subsys/bluetooth/controller/libsubsys__bluetooth__controller.a(ctrl.c.obj)
 .rodata.__func__.12189
                0x000000000000df5d       0x14 subsys/bluetooth/controller/libsubsys__bluetooth__controller.a(ctrl.c.obj)
 .rodata.__func__.12206
                0x000000000000df71       0x14 subsys/bluetooth/controller/libsubsys__bluetooth__controller.a(ctrl.c.obj)
 .rodata.__func__.12238
                0x000000000000df85        0xf subsys/bluetooth/controller/libsubsys__bluetooth__controller.a(ctrl.c.obj)
 .rodata.__func__.12246
                0x000000000000df94       0x19 subsys/bluetooth/controller/libsubsys__bluetooth__controller.a(ctrl.c.obj)
 .rodata.__func__.12274
                0x000000000000dfad        0xc subsys/bluetooth/controller/libsubsys__bluetooth__controller.a(ctrl.c.obj)
 .rodata.__func__.12292
                0x000000000000dfb9        0xd subsys/bluetooth/controller/libsubsys__bluetooth__controller.a(ctrl.c.obj)
 .rodata.__func__.12337
                0x000000000000dfc6       0x12 subsys/bluetooth/controller/libsubsys__bluetooth__controller.a(ctrl.c.obj)
 .rodata.__func__.12370
                0x000000000000dfd8       0x14 subsys/bluetooth/controller/libsubsys__bluetooth__controller.a(ctrl.c.obj)
 .rodata.__func__.12375
                0x000000000000dfec       0x13 subsys/bluetooth/controller/libsubsys__bluetooth__controller.a(ctrl.c.obj)
 .rodata.__func__.12396
                0x000000000000dfff       0x19 subsys/bluetooth/controller/libsubsys__bluetooth__controller.a(ctrl.c.obj)
 .rodata.__func__.12401
                0x000000000000e018        0xc subsys/bluetooth/controller/libsubsys__bluetooth__controller.a(ctrl.c.obj)
 .rodata.__func__.12409
                0x000000000000e024       0x10 subsys/bluetooth/controller/libsubsys__bluetooth__controller.a(ctrl.c.obj)
 .rodata.__func__.12459
                0x000000000000e034       0x14 subsys/bluetooth/controller/libsubsys__bluetooth__controller.a(ctrl.c.obj)
 .rodata.__func__.12481
                0x000000000000e048        0xd subsys/bluetooth/controller/libsubsys__bluetooth__controller.a(ctrl.c.obj)
 .rodata.__func__.12642
                0x000000000000e055        0xe subsys/bluetooth/controller/libsubsys__bluetooth__controller.a(ctrl.c.obj)
 .rodata.__func__.12678
                0x000000000000e063       0x12 subsys/bluetooth/controller/libsubsys__bluetooth__controller.a(ctrl.c.obj)
 .rodata.connection_release.str1.1
                0x000000000000e075       0x4e subsys/bluetooth/controller/libsubsys__bluetooth__controller.a(ctrl.c.obj)
 .rodata.event_adv.str1.1
                0x000000000000e0c3       0x3f subsys/bluetooth/controller/libsubsys__bluetooth__controller.a(ctrl.c.obj)
 .rodata.event_scan.str1.1
                0x000000000000e102       0xb3 subsys/bluetooth/controller/libsubsys__bluetooth__controller.a(ctrl.c.obj)
 .rodata.event_slave.str1.1
                0x000000000000e1b5       0x50 subsys/bluetooth/controller/libsubsys__bluetooth__controller.a(ctrl.c.obj)
 *fill*         0x000000000000e205        0x1 
 .rodata.gc_lookup_ppm
                0x000000000000e206       0x10 subsys/bluetooth/controller/libsubsys__bluetooth__controller.a(ctrl.c.obj)
 .rodata.isr.str1.1
                0x000000000000e216      0x1de subsys/bluetooth/controller/libsubsys__bluetooth__controller.a(ctrl.c.obj)
 .rodata.ll_rx_dequeue.str1.1
                0x000000000000e3f4       0xd3 subsys/bluetooth/controller/libsubsys__bluetooth__controller.a(ctrl.c.obj)
 .rodata.mayfly_adv_stop.str1.1
                0x000000000000e4c7       0x29 subsys/bluetooth/controller/libsubsys__bluetooth__controller.a(ctrl.c.obj)
 .rodata.mayfly_radio_active.str1.1
                0x000000000000e4f0       0x2a subsys/bluetooth/controller/libsubsys__bluetooth__controller.a(ctrl.c.obj)
 .rodata.mayfly_radio_stop.str1.1
                0x000000000000e51a       0x51 subsys/bluetooth/controller/libsubsys__bluetooth__controller.a(ctrl.c.obj)
 .rodata.mayfly_xtal_retain.str1.1
                0x000000000000e56b       0x59 subsys/bluetooth/controller/libsubsys__bluetooth__controller.a(ctrl.c.obj)
 .rodata.mayfly_xtal_stop_calc.str1.1
                0x000000000000e5c4       0x54 subsys/bluetooth/controller/libsubsys__bluetooth__controller.a(ctrl.c.obj)
 .rodata.packet_rx_enqueue.str1.1
                0x000000000000e618       0x79 subsys/bluetooth/controller/libsubsys__bluetooth__controller.a(ctrl.c.obj)
 .rodata.pdu_node_tx_release.str1.1
                0x000000000000e691       0x45 subsys/bluetooth/controller/libsubsys__bluetooth__controller.a(ctrl.c.obj)
 .rodata.radio_event_adv_prepare.str1.1
                0x000000000000e6d6       0x3b subsys/bluetooth/controller/libsubsys__bluetooth__controller.a(ctrl.c.obj)
 .rodata.role_disable.str1.1
                0x000000000000e711      0x1b5 subsys/bluetooth/controller/libsubsys__bluetooth__controller.a(ctrl.c.obj)
                                        0x1e3 (size before relaxing)
 .rodata.sched_after_mstr_free_offset_get.str1.1
                0x000000000000e8c6       0x59 subsys/bluetooth/controller/libsubsys__bluetooth__controller.a(ctrl.c.obj)
 .rodata.sched_after_mstr_free_slot_get.str1.1
                0x000000000000e91f       0x2d subsys/bluetooth/controller/libsubsys__bluetooth__controller.a(ctrl.c.obj)
 .rodata.terminate_ind_rx_enqueue.str1.1
                0x000000000000e94c       0x39 subsys/bluetooth/controller/libsubsys__bluetooth__controller.a(ctrl.c.obj)
 .rodata.ticker_stop_adv_assert.str1.1
                0x000000000000e985       0x3f subsys/bluetooth/controller/libsubsys__bluetooth__controller.a(ctrl.c.obj)
 .rodata.ticker_stop_adv_stop.str1.1
                0x000000000000e9c4       0x3c subsys/bluetooth/controller/libsubsys__bluetooth__controller.a(ctrl.c.obj)
 .rodata.ticker_stop_scan_assert.str1.1
                0x000000000000ea00       0x3f subsys/bluetooth/controller/libsubsys__bluetooth__controller.a(ctrl.c.obj)
 .rodata.ticker_success_assert.str1.1
                0x000000000000ea3f       0x2d subsys/bluetooth/controller/libsubsys__bluetooth__controller.a(ctrl.c.obj)
 .rodata.ticker_update_adv_assert.str1.1
                0x000000000000ea6c       0x4f subsys/bluetooth/controller/libsubsys__bluetooth__controller.a(ctrl.c.obj)
 .rodata.ticker_update_slave_assert.str1.1
                0x000000000000eabb       0x57 subsys/bluetooth/controller/libsubsys__bluetooth__controller.a(ctrl.c.obj)
 .rodata.__func__.11210
                0x000000000000eb12        0x8 subsys/bluetooth/controller/libsubsys__bluetooth__controller.a(ll.c.obj)
 .rodata.ll_init.str1.1
                0x000000000000eb1a       0x5b subsys/bluetooth/controller/libsubsys__bluetooth__controller.a(ll.c.obj)
                                         0x86 (size before relaxing)
 .rodata.__func__.8648
                0x000000000000eb75       0x10 subsys/bluetooth/controller/libsubsys__bluetooth__controller.a(ll_filter.c.obj)
 .rodata.ctrl_filter_get.str1.1
                0x000000000000eb85       0x2b subsys/bluetooth/controller/libsubsys__bluetooth__controller.a(ll_filter.c.obj)
                                         0x36 (size before relaxing)
 .rodata.__func__.10026
                0x000000000000ebb0        0xa subsys/bluetooth/controller/libsubsys__bluetooth__controller.a(cntr.c.obj)
 .rodata.cntr_stop.str1.1
                0x000000000000ebba       0x2b subsys/bluetooth/controller/libsubsys__bluetooth__controller.a(cntr.c.obj)
                                         0x36 (size before relaxing)
 .rodata.__func__.10063
                0x000000000000ebe5       0x11 subsys/bluetooth/controller/libsubsys__bluetooth__controller.a(mayfly.c.obj)
 .rodata.__func__.10071
                0x000000000000ebf6       0x12 subsys/bluetooth/controller/libsubsys__bluetooth__controller.a(mayfly.c.obj)
 .rodata.__func__.10085
                0x000000000000ec08        0xc subsys/bluetooth/controller/libsubsys__bluetooth__controller.a(mayfly.c.obj)
 .rodata.mayfly_enable_cb.str1.1
                0x000000000000ec14       0x30 subsys/bluetooth/controller/libsubsys__bluetooth__controller.a(mayfly.c.obj)
                                         0x3b (size before relaxing)
 .rodata.mayfly_is_enabled.str1.1
                0x000000000000ec44       0x23 subsys/bluetooth/controller/libsubsys__bluetooth__controller.a(mayfly.c.obj)
 .rodata.__func__.8056
                0x000000000000ec44       0x23 subsys/bluetooth/controller/libsubsys__bluetooth__controller.a(ticker.c.obj)
 .rodata.__func__.8069
                0x000000000000ec67       0x1b subsys/bluetooth/controller/libsubsys__bluetooth__controller.a(ticker.c.obj)
 .rodata.caller_id_lut
                0x000000000000ec82        0x4 subsys/bluetooth/controller/libsubsys__bluetooth__controller.a(ticker.c.obj)
 .rodata.hal_ticker_instance0_caller_id_get.str1.1
                0x000000000000ec86       0x71 subsys/bluetooth/controller/libsubsys__bluetooth__controller.a(ticker.c.obj)
                                         0x7c (size before relaxing)
 .rodata.hal_ticker_instance0_sched.str1.1
                0x000000000000ecf7       0x23 subsys/bluetooth/controller/libsubsys__bluetooth__controller.a(ticker.c.obj)
 *fill*         0x000000000000ecf7        0x1 
 .rodata.net_buf_fixed_cb
                0x000000000000ecf8        0xc subsys/net/libsubsys__net.a(buf.c.obj)
                0x000000000000ecf8                net_buf_fixed_cb
 .rodata.drive_strength.9369
                0x000000000000ed04       0x40 drivers/gpio/libdrivers__gpio.a(gpio_nrf5.c.obj)
 .rodata.gpio_nrf5_P0_cfg
                0x000000000000ed44        0x8 drivers/gpio/libdrivers__gpio.a(gpio_nrf5.c.obj)
 .rodata.gpio_nrf5_drv_api_funcs
                0x000000000000ed4c       0x1c drivers/gpio/libdrivers__gpio.a(gpio_nrf5.c.obj)
 .rodata.str1.1
                0x000000000000ed68        0x7 drivers/gpio/libdrivers__gpio.a(gpio_nrf5.c.obj)
 .rodata.str1.1
                0x000000000000ed6f        0x7 drivers/serial/libdrivers__serial.a(uart_nrfx_uart.c.obj)
 .rodata.uart_nrfx_init.str1.1
                0x000000000000ed6f        0x7 drivers/serial/libdrivers__serial.a(uart_nrfx_uart.c.obj)
 *fill*         0x000000000000ed6f        0x1 
 .rodata.uart_nrfx_uart_driver_api
                0x000000000000ed70        0xc drivers/serial/libdrivers__serial.a(uart_nrfx_uart.c.obj)
 .rodata.entropy_nrf5_api_funcs
                0x000000000000ed7c        0x8 drivers/entropy/libdrivers__entropy.a(entropy_nrf5.c.obj)
 .rodata.str1.1
                0x000000000000ed84        0xa drivers/entropy/libdrivers__entropy.a(entropy_nrf5.c.obj)
 .rodata.config_levels
                0x000000000000ed84       0x14 kernel/libkernel.a(device.c.obj)
 .rodata._k_neg_eagain
                0x000000000000ed98        0x4 kernel/libkernel.a(errno.c.obj)
                0x000000000000ed98                _k_neg_eagain
 .rodata._idle_thread
                0x000000000000ed9c        0x4 kernel/libkernel.a(init.c.obj)
                0x000000000000ed9c                _idle_thread
 .rodata.bg_thread_main.str1.1
                0x000000000000eda0       0x34 kernel/libkernel.a(init.c.obj)
 .rodata.str1.1
                0x000000000000edd4        0x1 kernel/libkernel.a(mempool.c.obj)
 .rodata.str1.1
                0x000000000000edd4        0x1 kernel/libkernel.a(system_work_q.c.obj)
 *(.gnu.linkonce.r.*)
                0x000000000000edd8                . = ALIGN (0x4)
                0x000000000000edd8                _image_rodata_end = .
                0x000000000000edd8                _image_rom_end = .

.rel.dyn        0x000000000000edd4        0x0
 .rel.iplt      0x000000000000edd4        0x0 CMakeFiles/kernel_elf.dir/isr_tables.c.obj

bss             0x0000000020000000     0x12a0
                0x0000000020000000                . = ALIGN (0x4)
                0x0000000020000000                __bss_start = .
                0x0000000020000000                _image_ram_start = .
                0x0000000020000000                __kernel_ram_start = .
 *(.bss)
 *(.bss.*)
 .bss.entropy_driver
                0x0000000020000000        0x4 libzephyr.a(rand32_entropy_device.c.obj)
 .bss.uart_console_dev
                0x0000000020000004        0x4 libzephyr.a(uart_console.c.obj)
 .bss.k32src_initialized
                0x0000000020000008        0x1 libzephyr.a(nrf5_power_clock.c.obj)
 .bss.m16src_grd
                0x0000000020000009        0x1 libzephyr.a(nrf5_power_clock.c.obj)
 .bss.m16src_ref
                0x000000002000000a        0x1 libzephyr.a(nrf5_power_clock.c.obj)
 *fill*         0x000000002000000b        0x1 
 .bss.expected_sys_ticks
                0x000000002000000c        0x4 libzephyr.a(nrf_rtc_timer.c.obj)
 .bss.rtc_past  0x0000000020000010        0x4 libzephyr.a(nrf_rtc_timer.c.obj)
 .bss.bufs.7903
                0x0000000020000014       0x24 subsys/bluetooth/common/libsubsys__bluetooth__common.a(log.c.obj)
 .bss.bufs.7909
                0x0000000020000038       0x36 subsys/bluetooth/common/libsubsys__bluetooth__common.a(log.c.obj)
 .bss.cur.7904  0x000000002000006e        0x1 subsys/bluetooth/common/libsubsys__bluetooth__common.a(log.c.obj)
 .bss.cur.7910  0x000000002000006f        0x1 subsys/bluetooth/common/libsubsys__bluetooth__common.a(log.c.obj)
 .bss.curbuf.7892
                0x0000000020000070        0x1 subsys/bluetooth/common/libsubsys__bluetooth__common.a(log.c.obj)
 .bss.hexbufs.7891
                0x0000000020000071      0x204 subsys/bluetooth/common/libsubsys__bluetooth__common.a(log.c.obj)
 *fill*         0x0000000020000275        0x3 
 .bss.cmd_data  0x0000000020000278       0x10 subsys/bluetooth/host/libsubsys__bluetooth__host.a(hci_core.c.obj)
 .bss.dh_key_cb
                0x0000000020000288        0x4 subsys/bluetooth/host/libsubsys__bluetooth__host.a(hci_core.c.obj)
 .bss.pub_key   0x000000002000028c       0x40 subsys/bluetooth/host/libsubsys__bluetooth__host.a(hci_core.c.obj)
 .bss.pub_key_cb
                0x00000000200002cc        0x4 subsys/bluetooth/host/libsubsys__bluetooth__host.a(hci_core.c.obj)
 .bss.ready_cb  0x00000000200002d0        0x4 subsys/bluetooth/host/libsubsys__bluetooth__host.a(hci_core.c.obj)
 .bss.scan_dev_found_cb
                0x00000000200002d4        0x4 subsys/bluetooth/host/libsubsys__bluetooth__host.a(hci_core.c.obj)
 .bss.tx_thread_data
                0x00000000200002d8       0x70 subsys/bluetooth/host/libsubsys__bluetooth__host.a(hci_core.c.obj)
 .bss.mfl       0x0000000020000348       0x80 subsys/bluetooth/controller/libsubsys__bluetooth__controller.a(mayfly.c.obj)
 .bss.mft       0x00000000200003c8       0xc0 subsys/bluetooth/controller/libsubsys__bluetooth__controller.a(mayfly.c.obj)
 .bss._instance
                0x0000000020000488       0x58 subsys/bluetooth/controller/libsubsys__bluetooth__controller.a(ticker.c.obj)
 .bss.pub_addr  0x00000000200004e0        0x6 subsys/bluetooth/controller/libsubsys__bluetooth__controller.a(ll_addr.c.obj)
 .bss.rnd_addr  0x00000000200004e6        0x6 subsys/bluetooth/controller/libsubsys__bluetooth__controller.a(ll_addr.c.obj)
 .bss._opcode   0x00000000200004ec        0x2 subsys/bluetooth/controller/libsubsys__bluetooth__controller.a(hci.c.obj)
 *fill*         0x00000000200004ee        0x2 
 .bss.dup_count
                0x00000000200004f0        0x4 subsys/bluetooth/controller/libsubsys__bluetooth__controller.a(hci.c.obj)
 .bss.dup_curr  0x00000000200004f4        0x4 subsys/bluetooth/controller/libsubsys__bluetooth__controller.a(hci.c.obj)
 .bss.dup_filter
                0x00000000200004f8       0x80 subsys/bluetooth/controller/libsubsys__bluetooth__controller.a(hci.c.obj)
 .bss._radio    0x0000000020000578      0x184 subsys/bluetooth/controller/libsubsys__bluetooth__controller.a(ctrl.c.obj)
 .bss.link_inact.12123
                0x00000000200006fc        0x8 subsys/bluetooth/controller/libsubsys__bluetooth__controller.a(ctrl.c.obj)
 .bss.link_inact.12455
                0x0000000020000704        0x8 subsys/bluetooth/controller/libsubsys__bluetooth__controller.a(ctrl.c.obj)
 .bss.link_radio.12138
                0x000000002000070c        0x8 subsys/bluetooth/controller/libsubsys__bluetooth__controller.a(ctrl.c.obj)
 .bss.link_radio.12464
                0x0000000020000714        0x8 subsys/bluetooth/controller/libsubsys__bluetooth__controller.a(ctrl.c.obj)
 .bss.link_xtal.12130
                0x000000002000071c        0x8 subsys/bluetooth/controller/libsubsys__bluetooth__controller.a(ctrl.c.obj)
 .bss.link_xtal.12460
                0x0000000020000724        0x8 subsys/bluetooth/controller/libsubsys__bluetooth__controller.a(ctrl.c.obj)
 .bss.s_active.11797
                0x000000002000072c        0x1 subsys/bluetooth/controller/libsubsys__bluetooth__controller.a(ctrl.c.obj)
 *fill*         0x000000002000072d        0x3 
 .bss.s_link.11805
                0x0000000020000730        0x8 subsys/bluetooth/controller/libsubsys__bluetooth__controller.a(ctrl.c.obj)
 .bss.s_link.11818
                0x0000000020000738        0x8 subsys/bluetooth/controller/libsubsys__bluetooth__controller.a(ctrl.c.obj)
 .bss.s_link.11831
                0x0000000020000740        0x8 subsys/bluetooth/controller/libsubsys__bluetooth__controller.a(ctrl.c.obj)
 .bss.s_link.11843
                0x0000000020000748        0x8 subsys/bluetooth/controller/libsubsys__bluetooth__controller.a(ctrl.c.obj)
 .bss.s_link.11847
                0x0000000020000750       0x10 subsys/bluetooth/controller/libsubsys__bluetooth__controller.a(ctrl.c.obj)
 .bss.s_link.11970
                0x0000000020000760        0x8 subsys/bluetooth/controller/libsubsys__bluetooth__controller.a(ctrl.c.obj)
 .bss.s_link.11992
                0x0000000020000768        0x8 subsys/bluetooth/controller/libsubsys__bluetooth__controller.a(ctrl.c.obj)
 .bss.s_link.12144
                0x0000000020000770        0x8 subsys/bluetooth/controller/libsubsys__bluetooth__controller.a(ctrl.c.obj)
 .bss.s_link.12163
                0x0000000020000778        0x8 subsys/bluetooth/controller/libsubsys__bluetooth__controller.a(ctrl.c.obj)
 .bss.s_link.12197
                0x0000000020000780        0x8 subsys/bluetooth/controller/libsubsys__bluetooth__controller.a(ctrl.c.obj)
 .bss.s_xtal_retained.11842
                0x0000000020000788        0x1 subsys/bluetooth/controller/libsubsys__bluetooth__controller.a(ctrl.c.obj)
 *fill*         0x0000000020000789        0x3 
 .bss._radio    0x000000002000078c      0x1f0 subsys/bluetooth/controller/libsubsys__bluetooth__controller.a(ll.c.obj)
 .bss._ticker_nodes
                0x000000002000097c      0x118 subsys/bluetooth/controller/libsubsys__bluetooth__controller.a(ll.c.obj)
 .bss._ticker_user_ops
                0x0000000020000a94      0x270 subsys/bluetooth/controller/libsubsys__bluetooth__controller.a(ll.c.obj)
 .bss._ticker_users
                0x0000000020000d04       0x20 subsys/bluetooth/controller/libsubsys__bluetooth__controller.a(ll.c.obj)
 .bss.sem_recv  0x0000000020000d24        0x4 subsys/bluetooth/controller/libsubsys__bluetooth__controller.a(ll.c.obj)
 .bss.ll_adv    0x0000000020000d28        0x8 subsys/bluetooth/controller/libsubsys__bluetooth__controller.a(ll_adv.c.obj)
 .bss.ll_scan   0x0000000020000d30        0x6 subsys/bluetooth/controller/libsubsys__bluetooth__controller.a(ll_scan.c.obj)
 .bss.wl_filter
                0x0000000020000d36       0x32 subsys/bluetooth/controller/libsubsys__bluetooth__controller.a(ll_filter.c.obj)
 .bss._refcount
                0x0000000020000d68        0x1 subsys/bluetooth/controller/libsubsys__bluetooth__controller.a(cntr.c.obj)
 *fill*         0x0000000020000d69        0x3 
 .bss._ccm_scratch
                0x0000000020000d6c      0x10b subsys/bluetooth/controller/libsubsys__bluetooth__controller.a(radio.c.obj)
 *fill*         0x0000000020000e77        0x1 
 .bss._pkt_empty
                0x0000000020000e78        0x3 subsys/bluetooth/controller/libsubsys__bluetooth__controller.a(radio.c.obj)
 *fill*         0x0000000020000e7b        0x1 
 .bss._pkt_scratch
                0x0000000020000e7c      0x102 subsys/bluetooth/controller/libsubsys__bluetooth__controller.a(radio.c.obj)
 *fill*         0x0000000020000f7e        0x2 
 .bss.radio_tmr_aa
                0x0000000020000f80        0x4 subsys/bluetooth/controller/libsubsys__bluetooth__controller.a(radio.c.obj)
 .bss.sfp_radio_isr
                0x0000000020000f84        0x4 subsys/bluetooth/controller/libsubsys__bluetooth__controller.a(radio.c.obj)
 .bss.sw_tifs_toggle
                0x0000000020000f88        0x1 subsys/bluetooth/controller/libsubsys__bluetooth__controller.a(radio.c.obj)
 *fill*         0x0000000020000f89        0x3 
 .bss.link.8065
                0x0000000020000f8c        0x8 subsys/bluetooth/controller/libsubsys__bluetooth__controller.a(ticker.c.obj)
 .bss.link.8073
                0x0000000020000f94        0x8 subsys/bluetooth/controller/libsubsys__bluetooth__controller.a(ticker.c.obj)
 .bss.link.8079
                0x0000000020000f9c        0x8 subsys/bluetooth/controller/libsubsys__bluetooth__controller.a(ticker.c.obj)
 .bss.link.8083
                0x0000000020000fa4        0x8 subsys/bluetooth/controller/libsubsys__bluetooth__controller.a(ticker.c.obj)
 .bss.link.8088
                0x0000000020000fac        0x8 subsys/bluetooth/controller/libsubsys__bluetooth__controller.a(ticker.c.obj)
 .bss.gpio_data_P0
                0x0000000020000fb4        0xc drivers/gpio/libdrivers__gpio.a(gpio_nrf5.c.obj)
 .bss.gpiote_chan_mask
                0x0000000020000fc0        0x4 drivers/gpio/libdrivers__gpio.a(gpio_nrf5.c.obj)
 .bss.entropy_nrf5_data
                0x0000000020000fc4       0x50 drivers/entropy/libdrivers__entropy.a(entropy_nrf5.c.obj)
 .bss._idle_thread_s
                0x0000000020001014       0x70 kernel/libkernel.a(init.c.obj)
 .bss._main_thread_s
                0x0000000020001084       0x70 kernel/libkernel.a(init.c.obj)
 .bss._time_slice_duration
                0x00000000200010f4        0x4 kernel/libkernel.a(sys_clock.c.obj)
                0x00000000200010f4                _time_slice_duration
 .bss._time_slice_prio_ceiling
                0x00000000200010f8        0x4 kernel/libkernel.a(sys_clock.c.obj)
                0x00000000200010f8                _time_slice_prio_ceiling
 *(COMMON)
 COMMON         0x00000000200010fc       0xe0 subsys/bluetooth/controller/libsubsys__bluetooth__controller.a(hci_driver.c.obj)
                0x00000000200010fc                recv_thread_data
                0x000000002000116c                prio_recv_thread_data
 COMMON         0x00000000200011dc        0x1 subsys/bluetooth/controller/libsubsys__bluetooth__controller.a(ll_filter.c.obj)
                0x00000000200011dc                wl_anon
 *fill*         0x00000000200011dd        0x3 
 COMMON         0x00000000200011e0       0x2c kernel/libkernel.a(sched.c.obj)
                0x00000000200011e0                _kernel
 *fill*         0x000000002000120c        0x4 
 COMMON         0x0000000020001210       0x10 kernel/libkernel.a(sys_clock.c.obj)
                0x0000000020001210                _handling_timeouts
                0x0000000020001214                _time_slice_elapsed
                0x0000000020001218                _sys_clock_tick_count
 COMMON         0x0000000020001220       0x80 kernel/libkernel.a(system_work_q.c.obj)
                0x0000000020001220                k_sys_work_q
 *(.kernel_bss.*)
                0x00000000200012a0                __bss_end = ALIGN (0x4)

noinit          0x00000000200012a0     0x1f00
 *(.noinit)
 *(.noinit.*)
 .noinit."/home/wewise/zephyr_prj/zephyr/subsys/bluetooth/host/hci_core.c".0
                0x00000000200012a0      0x3ac subsys/bluetooth/host/libsubsys__bluetooth__host.a(hci_core.c.obj)
 .noinit."/home/wewise/zephyr_prj/zephyr/subsys/bluetooth/host/hci_core.c".1
                0x000000002000164c       0x30 subsys/bluetooth/host/libsubsys__bluetooth__host.a(hci_core.c.obj)
 .noinit."/home/wewise/zephyr_prj/zephyr/subsys/bluetooth/host/hci_core.c".2
                0x000000002000167c       0x98 subsys/bluetooth/host/libsubsys__bluetooth__host.a(hci_core.c.obj)
 .noinit."/home/wewise/zephyr_prj/zephyr/subsys/bluetooth/host/hci_core.c".3
                0x0000000020001714       0x48 subsys/bluetooth/host/libsubsys__bluetooth__host.a(hci_core.c.obj)
 .noinit."/home/wewise/zephyr_prj/zephyr/subsys/bluetooth/host/hci_core.c".4
                0x000000002000175c       0xe4 subsys/bluetooth/host/libsubsys__bluetooth__host.a(hci_core.c.obj)
 .noinit."/home/wewise/zephyr_prj/zephyr/subsys/bluetooth/controller/hci/hci_driver.c".0
                0x0000000020001840      0x2ec subsys/bluetooth/controller/libsubsys__bluetooth__controller.a(hci_driver.c.obj)
 *fill*         0x0000000020001b2c        0x4 
 .noinit."/home/wewise/zephyr_prj/zephyr/subsys/bluetooth/controller/hci/hci_driver.c".1
                0x0000000020001b30      0x52c subsys/bluetooth/controller/libsubsys__bluetooth__controller.a(hci_driver.c.obj)
 *fill*         0x000000002000205c        0x4 
 .noinit."/home/wewise/zephyr_prj/zephyr/kernel/init.c".1
                0x0000000020002060      0x400 kernel/libkernel.a(init.c.obj)
                0x0000000020002060                _main_stack
 .noinit."/home/wewise/zephyr_prj/zephyr/kernel/init.c".2
                0x0000000020002460      0x140 kernel/libkernel.a(init.c.obj)
                0x0000000020002460                _idle_stack
 .noinit."/home/wewise/zephyr_prj/zephyr/kernel/init.c".3
                0x00000000200025a0      0x800 kernel/libkernel.a(init.c.obj)
                0x00000000200025a0                _interrupt_stack
 .noinit."/home/wewise/zephyr_prj/zephyr/kernel/system_work_q.c".0
                0x0000000020002da0      0x400 kernel/libkernel.a(system_work_q.c.obj)
                0x0000000020002da0                sys_work_q_stack
 *(.kernel_noinit.*)

datas           0x00000000200031a0      0x27c load address 0x000000000000edd4
                0x00000000200031a0                __data_ram_start = .
 *(.data)
 *(.data.*)
 .data.mfg_data
                0x00000000200031a0        0x3 ../libapp.a(main.c.obj)
 *fill*         0x00000000200031a3        0x1 
 .data.mpu_config
                0x00000000200031a4        0x8 libzephyr.a(mpu_regions.c.obj)
                0x00000000200031a4                mpu_config
 .data.mpu_regions
                0x00000000200031ac       0x18 libzephyr.a(mpu_regions.c.obj)
 .data.SystemCoreClock
                0x00000000200031c4        0x4 libzephyr.a(soc.c.obj)
                0x00000000200031c4                SystemCoreClock
 .data._char_out
                0x00000000200031c8        0x4 libzephyr.a(printk.c.obj)
 *fill*         0x00000000200031cc        0x4 
 .data.bt_dev   0x00000000200031d0       0xb8 subsys/bluetooth/host/libsubsys__bluetooth__host.a(hci_core.c.obj)
                0x00000000200031d0                bt_dev
 .data.events.11133
                0x0000000020003288       0x14 subsys/bluetooth/host/libsubsys__bluetooth__host.a(hci_core.c.obj)
 *fill*         0x000000002000329c        0x4 
 .data.event_mask
                0x00000000200032a0        0x8 subsys/bluetooth/controller/libsubsys__bluetooth__controller.a(hci.c.obj)
 .data.le_event_mask
                0x00000000200032a8        0x8 subsys/bluetooth/controller/libsubsys__bluetooth__controller.a(hci.c.obj)
 .data.s_mfy_adv_stop.12145
                0x00000000200032b0       0x10 subsys/bluetooth/controller/libsubsys__bluetooth__controller.a(ctrl.c.obj)
 .data.s_mfy_radio_active.11806
                0x00000000200032c0       0x10 subsys/bluetooth/controller/libsubsys__bluetooth__controller.a(ctrl.c.obj)
 .data.s_mfy_radio_inactive.11819
                0x00000000200032d0       0x10 subsys/bluetooth/controller/libsubsys__bluetooth__controller.a(ctrl.c.obj)
 .data.s_mfy_radio_inactive.12124
                0x00000000200032e0       0x10 subsys/bluetooth/controller/libsubsys__bluetooth__controller.a(ctrl.c.obj)
 .data.s_mfy_radio_inactive.12456
                0x00000000200032f0       0x10 subsys/bluetooth/controller/libsubsys__bluetooth__controller.a(ctrl.c.obj)
 .data.s_mfy_radio_stop.11971
                0x0000000020003300       0x10 subsys/bluetooth/controller/libsubsys__bluetooth__controller.a(ctrl.c.obj)
 .data.s_mfy_radio_stop.12139
                0x0000000020003310       0x10 subsys/bluetooth/controller/libsubsys__bluetooth__controller.a(ctrl.c.obj)
 .data.s_mfy_radio_stop.12465
                0x0000000020003320       0x10 subsys/bluetooth/controller/libsubsys__bluetooth__controller.a(ctrl.c.obj)
 .data.s_mfy_sched_after_mstr_free_offset_get.12164
                0x0000000020003330       0x10 subsys/bluetooth/controller/libsubsys__bluetooth__controller.a(ctrl.c.obj)
 .data.s_mfy_sched_offset.12198
                0x0000000020003340       0x10 subsys/bluetooth/controller/libsubsys__bluetooth__controller.a(ctrl.c.obj)
 .data.s_mfy_xtal_start.11832
                0x0000000020003350       0x10 subsys/bluetooth/controller/libsubsys__bluetooth__controller.a(ctrl.c.obj)
 .data.s_mfy_xtal_start.11844
                0x0000000020003360       0x10 subsys/bluetooth/controller/libsubsys__bluetooth__controller.a(ctrl.c.obj)
 .data.s_mfy_xtal_stop.11848
                0x0000000020003370       0x20 subsys/bluetooth/controller/libsubsys__bluetooth__controller.a(ctrl.c.obj)
 .data.s_mfy_xtal_stop.12131
                0x0000000020003390       0x10 subsys/bluetooth/controller/libsubsys__bluetooth__controller.a(ctrl.c.obj)
 .data.s_mfy_xtal_stop.12461
                0x00000000200033a0       0x10 subsys/bluetooth/controller/libsubsys__bluetooth__controller.a(ctrl.c.obj)
 .data.s_mfy_xtal_stop_calc.11993
                0x00000000200033b0       0x10 subsys/bluetooth/controller/libsubsys__bluetooth__controller.a(ctrl.c.obj)
 .data.m.8066   0x00000000200033c0       0x10 subsys/bluetooth/controller/libsubsys__bluetooth__controller.a(ticker.c.obj)
 .data.m.8074   0x00000000200033d0       0x10 subsys/bluetooth/controller/libsubsys__bluetooth__controller.a(ticker.c.obj)
 .data.m.8080   0x00000000200033e0       0x10 subsys/bluetooth/controller/libsubsys__bluetooth__controller.a(ticker.c.obj)
 .data.m.8084   0x00000000200033f0       0x10 subsys/bluetooth/controller/libsubsys__bluetooth__controller.a(ticker.c.obj)
 .data.m.8089   0x0000000020003400       0x10 subsys/bluetooth/controller/libsubsys__bluetooth__controller.a(ticker.c.obj)
 .data._sys_idle_threshold_ticks
                0x0000000020003410        0x4 kernel/libkernel.a(idle.c.obj)
                0x0000000020003410                _sys_idle_threshold_ticks
 .data._sys_idle_elapsed_ticks
                0x0000000020003414        0x4 kernel/libkernel.a(sys_clock.c.obj)
                0x0000000020003414                _sys_idle_elapsed_ticks
 .data.sys_clock_hw_cycles_per_tick
                0x0000000020003418        0x4 kernel/libkernel.a(sys_clock.c.obj)
                0x0000000020003418                sys_clock_hw_cycles_per_tick
 *(.kernel.*)
                0x000000000000edd4                __data_rom_start = LOADADDR (datas)

initlevel       0x000000002000341c       0x90 load address 0x000000000000f050
                0x000000002000341c                __device_init_start = .
                0x000000002000341c                __device_PRE_KERNEL_1_start = .
 *(SORT(.init_PRE_KERNEL_1[0-9]))
 .init_PRE_KERNEL_10
                0x000000002000341c        0xc libzephyr.a(soc.c.obj)
 *(SORT(.init_PRE_KERNEL_1[1-9][0-9]))
 .init_PRE_KERNEL_130
                0x0000000020003428        0xc kernel/libkernel.a(mempool.c.obj)
 .init_PRE_KERNEL_140
                0x0000000020003434        0xc arch/arm/core/cortex_m/mpu/libarch__arm__core__cortex_m__mpu.a(arm_mpu.c.obj)
 .init_PRE_KERNEL_150
                0x0000000020003440       0x18 libzephyr.a(nrf5_power_clock.c.obj)
 .init_PRE_KERNEL_150
                0x0000000020003458        0xc drivers/entropy/libdrivers__entropy.a(entropy_nrf5.c.obj)
 .init_PRE_KERNEL_160
                0x0000000020003464        0xc libzephyr.a(uart_console.c.obj)
                0x0000000020003470                __device_PRE_KERNEL_2_start = .
 *(SORT(.init_PRE_KERNEL_2[0-9]))
 .init_PRE_KERNEL_20
                0x0000000020003470        0xc libzephyr.a(sys_clock_init.c.obj)
 *(SORT(.init_PRE_KERNEL_2[1-9][0-9]))
                0x000000002000347c                __device_POST_KERNEL_start = .
 *(SORT(.init_POST_KERNEL[0-9]))
 *(SORT(.init_POST_KERNEL[1-9][0-9]))
 .init_POST_KERNEL40
                0x000000002000347c        0xc drivers/gpio/libdrivers__gpio.a(gpio_nrf5.c.obj)
 .init_POST_KERNEL40
                0x0000000020003488        0xc kernel/libkernel.a(system_work_q.c.obj)
 .init_POST_KERNEL50
                0x0000000020003494        0xc subsys/bluetooth/controller/libsubsys__bluetooth__controller.a(hci_driver.c.obj)
 .init_POST_KERNEL50
                0x00000000200034a0        0xc drivers/serial/libdrivers__serial.a(uart_nrfx_uart.c.obj)
                0x00000000200034ac                __device_APPLICATION_start = .
 *(SORT(.init_APPLICATION[0-9]))
 *(SORT(.init_APPLICATION[1-9][0-9]))
                0x00000000200034ac                __device_init_end = .

initlevel_error
                0x000000002000341c        0x0
 *(SORT(.init_[_A-Z0-9]*))
                0x0000000000000001                ASSERT ((SIZEOF (initlevel_error) == 0x0), Undefined initialization levels used.)

initshell       0x00000000200034ac        0x0 load address 0x000000000000f0e0
                0x00000000200034ac                __shell_module_start = .
 *(.shell_module_*)
                0x00000000200034ac                __shell_module_end = .
                0x00000000200034ac                __shell_cmd_start = .
 *(.shell_cmd_*)
                0x00000000200034ac                __shell_cmd_end = .

_static_thread_area
                0x00000000200034ac        0x0 load address 0x000000000000f0e0
                0x00000000200034ac                _static_thread_data_list_start = .
 *(SORT(._static_thread_data.static.*))
                0x00000000200034ac                _static_thread_data_list_end = .

_k_timer_area   0x00000000200034ac        0x0 load address 0x000000000000f0e0
                0x00000000200034ac                _k_timer_list_start = .
 *(SORT(._k_timer.static.*))
                0x00000000200034ac                _k_timer_list_end = .

_k_mem_slab_area
                0x00000000200034ac        0x0 load address 0x000000000000f0e0
                0x00000000200034ac                _k_mem_slab_list_start = .
 *(SORT(._k_mem_slab.static.*))
                0x00000000200034ac                _k_mem_slab_list_end = .

_k_mem_pool_area
                0x00000000200034ac        0x0 load address 0x000000000000f0e0
 *(SORT(._k_memory_pool.struct*))
                0x00000000200034ac                _k_mem_pool_list_start = .
 *(SORT(._k_mem_pool.static.*))
                0x00000000200034ac                _k_mem_pool_list_end = .

_k_sem_area     0x00000000200034ac       0x18 load address 0x000000000000f0e0
                0x00000000200034ac                _k_sem_list_start = .
 *(SORT(._k_sem.static.*))
 ._k_sem.static.sem_prio_recv
                0x00000000200034ac       0x18 subsys/bluetooth/controller/libsubsys__bluetooth__controller.a(hci_driver.c.obj)
                0x00000000200034c4                _k_sem_list_end = .

_k_mutex_area   0x00000000200034c4        0x0 load address 0x000000000000f0f8
                0x00000000200034c4                _k_mutex_list_start = .
 *(SORT(._k_mutex.static.*))
                0x00000000200034c4                _k_mutex_list_end = .

_k_alert_area   0x00000000200034c4        0x0 load address 0x000000000000f0f8
                0x00000000200034c4                _k_alert_list_start = .
 *(SORT(._k_alert.static.*))
                0x00000000200034c4                _k_alert_list_end = .

_k_queue_area   0x00000000200034c4       0x10 load address 0x000000000000f0f8
                0x00000000200034c4                _k_queue_list_start = .
 *(SORT(._k_queue.static.*))
 ._k_queue.static.recv_fifo
                0x00000000200034c4       0x10 subsys/bluetooth/controller/libsubsys__bluetooth__controller.a(hci_driver.c.obj)
                0x00000000200034d4                _k_queue_list_end = .

_k_stack_area   0x00000000200034d4        0x0 load address 0x000000000000f108
                0x00000000200034d4                _k_stack_list_start = .
 *(SORT(._k_stack.static.*))
                0x00000000200034d4                _k_stack_list_end = .

_k_msgq_area    0x00000000200034d4        0x0 load address 0x000000000000f108
                0x00000000200034d4                _k_msgq_list_start = .
 *(SORT(._k_msgq.static.*))
                0x00000000200034d4                _k_msgq_list_end = .

_k_mbox_area    0x00000000200034d4        0x0 load address 0x000000000000f108
                0x00000000200034d4                _k_mbox_list_start = .
 *(SORT(._k_mbox.static.*))
                0x00000000200034d4                _k_mbox_list_end = .

_k_pipe_area    0x00000000200034d4        0x0 load address 0x000000000000f108
                0x00000000200034d4                _k_pipe_list_start = .
 *(SORT(._k_pipe.static.*))
                0x00000000200034d4                _k_pipe_list_end = .

_k_work_area    0x00000000200034d4        0x0 load address 0x000000000000f108
                0x00000000200034d4                _k_work_list_start = .
 *(SORT(._k_work.static.*))
                0x00000000200034d4                _k_work_list_end = .

_k_task_list    0x00000000200034d4        0x0 load address 0x000000000000f108
                0x00000000200034d4                _k_task_list_start = .
 *(._k_task_list.public.*)
 *(._k_task_list.private.*)
                0x00000000200034d4                _k_task_list_idle_start = .
 *(._k_task_list.idle.*)
 *(SORT(._k_task_list*))
                0x00000000200034d4                _k_task_list_end = .

_k_event_list   0x00000000200034d4        0x0 load address 0x000000000000f108
                0x00000000200034d4                _k_event_list_start = .
 *(._k_event_list.event.*)
 *(SORT(._k_event_list*))
                0x00000000200034d4                _k_event_list_end = .

_k_memory_pool  0x00000000200034d4        0x0 load address 0x000000000000f108
 *(._k_memory_pool.struct*)
 *(SORT(._k_memory_pool.struct*))
                0x00000000200034d4                _k_mem_pool_start = .
 *(._k_memory_pool.*)
 *(SORT(._k_memory_pool*))
                0x00000000200034d4                _k_mem_pool_end = .

_net_buf_pool_area
                0x00000000200034d4       0x40 load address 0x000000000000f108
                0x00000000200034d4                _net_buf_pool_list = .
 *(SORT(._net_buf_pool.static.*))
 ._net_buf_pool.static.hci_cmd_pool
                0x00000000200034d4       0x20 subsys/bluetooth/host/libsubsys__bluetooth__host.a(hci_core.c.obj)
                0x00000000200034d4                hci_cmd_pool
 ._net_buf_pool.static.hci_rx_pool
                0x00000000200034f4       0x20 subsys/bluetooth/host/libsubsys__bluetooth__host.a(hci_core.c.obj)
                0x00000000200034f4                hci_rx_pool

net_if          0x0000000020003514        0x0 load address 0x000000000000f148
                0x0000000020003514                __net_if_start = .
 *(.net_if.*)
 *(SORT(.net_if.*))
                0x0000000020003514                __net_if_end = .

net_if_dev      0x0000000020003514        0x0 load address 0x000000000000f148
                0x0000000020003514                __net_if_dev_start = .
 *(.net_if_dev.*)
 *(SORT(.net_if_dev.*))
                0x0000000020003514                __net_if_dev_end = .

net_l2_data     0x0000000020003514        0x0 load address 0x000000000000f148
                0x0000000020003514                __net_l2_data_start = .
 *(.net_l2.data)
 *(SORT(.net_l2.data*))
                0x0000000020003514                __net_l2_data_end = .
                0x0000000020003514                __data_ram_end = .
                0x0000000020003514                _image_ram_end = .
                0x0000000020003514                _end = .
                0x0000000020010000                __kernel_ram_end = 0x20010000
                0x0000000000010000                __kernel_ram_size = (__kernel_ram_end - __kernel_ram_start)

/DISCARD/
 *(.irq_info)
 *(.intList)
OUTPUT(zephyr.elf elf32-littlearm)

.debug_info     0x0000000000000000    0x507e8
 .debug_info    0x0000000000000000       0xe0 CMakeFiles/kernel_elf.dir/isr_tables.c.obj
 .debug_info    0x00000000000000e0      0xbf6 ../libapp.a(main.c.obj)
 .debug_info    0x0000000000000cd6      0x147 libzephyr.a(isr_tables.c.obj)
 .debug_info    0x0000000000000e1d      0x72d libzephyr.a(mpu_regions.c.obj)
 .debug_info    0x000000000000154a     0x138f libzephyr.a(soc.c.obj)
 .debug_info    0x00000000000028d9      0x747 libzephyr.a(thread_entry.c.obj)
 .debug_info    0x0000000000003020     0x1445 libzephyr.a(mempool.c.obj)
 .debug_info    0x0000000000004465      0xeba libzephyr.a(printk.c.obj)
 .debug_info    0x000000000000531f       0x33 libzephyr.a(configs.c.obj)
 .debug_info    0x0000000000005352      0x9b5 libzephyr.a(rand32_entropy_device.c.obj)
 .debug_info    0x0000000000005d07      0x9a9 libzephyr.a(uart_console.c.obj)
 .debug_info    0x00000000000066b0     0x164b libzephyr.a(nrf5_power_clock.c.obj)
 .debug_info    0x0000000000007cfb      0x71d libzephyr.a(sys_clock_init.c.obj)
 .debug_info    0x0000000000008418      0xf86 libzephyr.a(nrf_rtc_timer.c.obj)
 .debug_info    0x000000000000939e       0xc4 arch/arm/core/libarch__arm__core.a(exc_exit.S.obj)
 .debug_info    0x0000000000009462      0xb07 arch/arm/core/libarch__arm__core.a(irq_init.c.obj)
 .debug_info    0x0000000000009f69      0xa00 arch/arm/core/libarch__arm__core.a(swap.c.obj)
 .debug_info    0x000000000000a969       0xc3 arch/arm/core/libarch__arm__core.a(swap_helper.S.obj)
 .debug_info    0x000000000000aa2c     0x10a3 arch/arm/core/libarch__arm__core.a(fault.c.obj)
 .debug_info    0x000000000000bacf      0xed3 arch/arm/core/libarch__arm__core.a(irq_manage.c.obj)
 .debug_info    0x000000000000c9a2      0xad3 arch/arm/core/libarch__arm__core.a(thread.c.obj)
 .debug_info    0x000000000000d475       0xc0 arch/arm/core/libarch__arm__core.a(cpu_idle.S.obj)
 .debug_info    0x000000000000d535       0xc3 arch/arm/core/libarch__arm__core.a(fault_s.S.obj)
 .debug_info    0x000000000000d5f8      0xaa1 arch/arm/core/libarch__arm__core.a(fatal.c.obj)
 .debug_info    0x000000000000e099      0xa1b arch/arm/core/libarch__arm__core.a(sys_fatal_error_handler.c.obj)
 .debug_info    0x000000000000eab4      0xad0 arch/arm/core/libarch__arm__core.a(thread_abort.c.obj)
 .debug_info    0x000000000000f584       0xc7 arch/arm/core/libarch__arm__core.a(isr_wrapper.S.obj)
 .debug_info    0x000000000000f64b       0xd3 arch/arm/core/cortex_m/libarch__arm__core__cortex_m.a(reset.S.obj)
 .debug_info    0x000000000000f71e       0xda arch/arm/core/cortex_m/libarch__arm__core__cortex_m.a(nmi_on_reset.S.obj)
 .debug_info    0x000000000000f7f8      0x9e1 arch/arm/core/cortex_m/libarch__arm__core__cortex_m.a(prep_c.c.obj)
 .debug_info    0x00000000000101d9      0x66c arch/arm/core/cortex_m/libarch__arm__core__cortex_m.a(nmi.c.obj)
 .debug_info    0x0000000000010845      0xe15 arch/arm/core/cortex_m/mpu/libarch__arm__core__cortex_m__mpu.a(arm_mpu.c.obj)
 .debug_info    0x000000000001165a      0x543 lib/libc/minimal/liblib__libc__minimal.a(string.c.obj)
 .debug_info    0x0000000000011b9d      0xc94 subsys/bluetooth/common/libsubsys__bluetooth__common.a(log.c.obj)
 .debug_info    0x0000000000012831     0x6605 subsys/bluetooth/host/libsubsys__bluetooth__host.a(hci_core.c.obj)
 .debug_info    0x0000000000018e36      0x4d8 subsys/bluetooth/controller/libsubsys__bluetooth__controller.a(mem.c.obj)
 .debug_info    0x000000000001930e      0x1fa subsys/bluetooth/controller/libsubsys__bluetooth__controller.a(memq.c.obj)
 .debug_info    0x0000000000019508      0x4d1 subsys/bluetooth/controller/libsubsys__bluetooth__controller.a(mayfly.c.obj)
 .debug_info    0x00000000000199d9       0xc9 subsys/bluetooth/controller/libsubsys__bluetooth__controller.a(util.c.obj)
 .debug_info    0x0000000000019aa2     0x2612 subsys/bluetooth/controller/libsubsys__bluetooth__controller.a(ticker.c.obj)
 .debug_info    0x000000000001c0b4      0x1a8 subsys/bluetooth/controller/libsubsys__bluetooth__controller.a(ll_addr.c.obj)
 .debug_info    0x000000000001c25c       0xfb subsys/bluetooth/controller/libsubsys__bluetooth__controller.a(ll_tx_pwr.c.obj)
 .debug_info    0x000000000001c357      0xab4 subsys/bluetooth/controller/libsubsys__bluetooth__controller.a(crypto.c.obj)
 .debug_info    0x000000000001ce0b     0x1769 subsys/bluetooth/controller/libsubsys__bluetooth__controller.a(hci_driver.c.obj)
 .debug_info    0x000000000001e574     0x507b subsys/bluetooth/controller/libsubsys__bluetooth__controller.a(hci.c.obj)
 .debug_info    0x00000000000235ef     0xb0c6 subsys/bluetooth/controller/libsubsys__bluetooth__controller.a(ctrl.c.obj)
 .debug_info    0x000000000002e6b5     0x1315 subsys/bluetooth/controller/libsubsys__bluetooth__controller.a(ll.c.obj)
 .debug_info    0x000000000002f9ca     0x1033 subsys/bluetooth/controller/libsubsys__bluetooth__controller.a(ll_adv.c.obj)
 .debug_info    0x00000000000309fd      0x81a subsys/bluetooth/controller/libsubsys__bluetooth__controller.a(ll_scan.c.obj)
 .debug_info    0x0000000000031217      0xd5d subsys/bluetooth/controller/libsubsys__bluetooth__controller.a(ll_filter.c.obj)
 .debug_info    0x0000000000031f74      0xbd9 subsys/bluetooth/controller/libsubsys__bluetooth__controller.a(cntr.c.obj)
 .debug_info    0x0000000000032b4d     0x126b subsys/bluetooth/controller/libsubsys__bluetooth__controller.a(ecb.c.obj)
 .debug_info    0x0000000000033db8     0x2621 subsys/bluetooth/controller/libsubsys__bluetooth__controller.a(radio.c.obj)
 .debug_info    0x00000000000363d9      0xe1e subsys/bluetooth/controller/libsubsys__bluetooth__controller.a(mayfly.c.obj)
 .debug_info    0x00000000000371f7      0xc00 subsys/bluetooth/controller/libsubsys__bluetooth__controller.a(ticker.c.obj)
 .debug_info    0x0000000000037df7     0x26c2 subsys/net/libsubsys__net.a(buf.c.obj)
 .debug_info    0x000000000003a4b9     0x197b drivers/gpio/libdrivers__gpio.a(gpio_nrf5.c.obj)
 .debug_info    0x000000000003be34     0x1649 drivers/serial/libdrivers__serial.a(uart_nrfx_uart.c.obj)
 .debug_info    0x000000000003d47d     0x10b2 drivers/entropy/libdrivers__entropy.a(entropy_nrf5.c.obj)
 .debug_info    0x000000000003e52f      0x868 kernel/libkernel.a(device.c.obj)
 .debug_info    0x000000000003ed97      0x817 kernel/libkernel.a(errno.c.obj)
 .debug_info    0x000000000003f5ae      0xa3d kernel/libkernel.a(idle.c.obj)
 .debug_info    0x000000000003ffeb     0x17a1 kernel/libkernel.a(init.c.obj)
 .debug_info    0x000000000004178c     0x10d7 kernel/libkernel.a(mempool.c.obj)
 .debug_info    0x0000000000042863     0x1b68 kernel/libkernel.a(queue.c.obj)
 .debug_info    0x00000000000443cb     0x2d8b kernel/libkernel.a(sched.c.obj)
 .debug_info    0x0000000000047156      0xdcc kernel/libkernel.a(sem.c.obj)
 .debug_info    0x0000000000047f22     0x124b kernel/libkernel.a(sys_clock.c.obj)
 .debug_info    0x000000000004916d      0x7c2 kernel/libkernel.a(system_work_q.c.obj)
 .debug_info    0x000000000004992f     0x1c8b kernel/libkernel.a(thread.c.obj)
 .debug_info    0x000000000004b5ba     0x1a53 kernel/libkernel.a(work_q.c.obj)
 .debug_info    0x000000000004d00d     0x1660 kernel/libkernel.a(poll.c.obj)
 .debug_info    0x000000000004e66d      0xb33 CMakeFiles/offsets.dir/arch/arm/core/offsets/offsets.c.obj
 .debug_info    0x000000000004f1a0       0xdc /opt/zephyr-sdk/sysroots/armv5-zephyr-eabi/usr/lib/arm-zephyr-eabi/6.2.0/armv7e-m/libgcc.a(_aeabi_uldivmod.o)
 .debug_info    0x000000000004f27c      0x88c /opt/zephyr-sdk/sysroots/armv5-zephyr-eabi/usr/lib/arm-zephyr-eabi/6.2.0/armv7e-m/libgcc.a(_popcountsi2.o)
 .debug_info    0x000000000004fb08      0xc00 /opt/zephyr-sdk/sysroots/armv5-zephyr-eabi/usr/lib/arm-zephyr-eabi/6.2.0/armv7e-m/libgcc.a(_udivmoddi4.o)
 .debug_info    0x0000000000050708       0xe0 /opt/zephyr-sdk/sysroots/armv5-zephyr-eabi/usr/lib/arm-zephyr-eabi/6.2.0/armv7e-m/libgcc.a(_dvmd_tls.o)

.debug_abbrev   0x0000000000000000     0xce71
 .debug_abbrev  0x0000000000000000       0xb5 CMakeFiles/kernel_elf.dir/isr_tables.c.obj
 .debug_abbrev  0x00000000000000b5      0x2be ../libapp.a(main.c.obj)
 .debug_abbrev  0x0000000000000373       0xe0 libzephyr.a(isr_tables.c.obj)
 .debug_abbrev  0x0000000000000453      0x18f libzephyr.a(mpu_regions.c.obj)
 .debug_abbrev  0x00000000000005e2      0x337 libzephyr.a(soc.c.obj)
 .debug_abbrev  0x0000000000000919      0x217 libzephyr.a(thread_entry.c.obj)
 .debug_abbrev  0x0000000000000b30      0x497 libzephyr.a(mempool.c.obj)
 .debug_abbrev  0x0000000000000fc7      0x410 libzephyr.a(printk.c.obj)
 .debug_abbrev  0x00000000000013d7       0x2a libzephyr.a(configs.c.obj)
 .debug_abbrev  0x0000000000001401      0x274 libzephyr.a(rand32_entropy_device.c.obj)
 .debug_abbrev  0x0000000000001675      0x2d2 libzephyr.a(uart_console.c.obj)
 .debug_abbrev  0x0000000000001947      0x3ce libzephyr.a(nrf5_power_clock.c.obj)
 .debug_abbrev  0x0000000000001d15      0x192 libzephyr.a(sys_clock_init.c.obj)
 .debug_abbrev  0x0000000000001ea7      0x3ba libzephyr.a(nrf_rtc_timer.c.obj)
 .debug_abbrev  0x0000000000002261       0x14 arch/arm/core/libarch__arm__core.a(exc_exit.S.obj)
 .debug_abbrev  0x0000000000002275      0x238 arch/arm/core/libarch__arm__core.a(irq_init.c.obj)
 .debug_abbrev  0x00000000000024ad      0x1ee arch/arm/core/libarch__arm__core.a(swap.c.obj)
 .debug_abbrev  0x000000000000269b       0x12 arch/arm/core/libarch__arm__core.a(swap_helper.S.obj)
 .debug_abbrev  0x00000000000026ad      0x3d4 arch/arm/core/libarch__arm__core.a(fault.c.obj)
 .debug_abbrev  0x0000000000002a81      0x2fb arch/arm/core/libarch__arm__core.a(irq_manage.c.obj)
 .debug_abbrev  0x0000000000002d7c      0x266 arch/arm/core/libarch__arm__core.a(thread.c.obj)
 .debug_abbrev  0x0000000000002fe2       0x12 arch/arm/core/libarch__arm__core.a(cpu_idle.S.obj)
 .debug_abbrev  0x0000000000002ff4       0x14 arch/arm/core/libarch__arm__core.a(fault_s.S.obj)
 .debug_abbrev  0x0000000000003008      0x28d arch/arm/core/libarch__arm__core.a(fatal.c.obj)
 .debug_abbrev  0x0000000000003295      0x256 arch/arm/core/libarch__arm__core.a(sys_fatal_error_handler.c.obj)
 .debug_abbrev  0x00000000000034eb      0x25d arch/arm/core/libarch__arm__core.a(thread_abort.c.obj)
 .debug_abbrev  0x0000000000003748       0x14 arch/arm/core/libarch__arm__core.a(isr_wrapper.S.obj)
 .debug_abbrev  0x000000000000375c       0x14 arch/arm/core/cortex_m/libarch__arm__core__cortex_m.a(reset.S.obj)
 .debug_abbrev  0x0000000000003770       0x14 arch/arm/core/cortex_m/libarch__arm__core__cortex_m.a(nmi_on_reset.S.obj)
 .debug_abbrev  0x0000000000003784      0x1fa arch/arm/core/cortex_m/libarch__arm__core__cortex_m.a(prep_c.c.obj)
 .debug_abbrev  0x000000000000397e      0x1a5 arch/arm/core/cortex_m/libarch__arm__core__cortex_m.a(nmi.c.obj)
 .debug_abbrev  0x0000000000003b23      0x33e arch/arm/core/cortex_m/mpu/libarch__arm__core__cortex_m__mpu.a(arm_mpu.c.obj)
 .debug_abbrev  0x0000000000003e61      0x19f lib/libc/minimal/liblib__libc__minimal.a(string.c.obj)
 .debug_abbrev  0x0000000000004000      0x314 subsys/bluetooth/common/libsubsys__bluetooth__common.a(log.c.obj)
 .debug_abbrev  0x0000000000004314      0x680 subsys/bluetooth/host/libsubsys__bluetooth__host.a(hci_core.c.obj)
 .debug_abbrev  0x0000000000004994      0x14b subsys/bluetooth/controller/libsubsys__bluetooth__controller.a(mem.c.obj)
 .debug_abbrev  0x0000000000004adf      0x137 subsys/bluetooth/controller/libsubsys__bluetooth__controller.a(memq.c.obj)
 .debug_abbrev  0x0000000000004c16      0x1a1 subsys/bluetooth/controller/libsubsys__bluetooth__controller.a(mayfly.c.obj)
 .debug_abbrev  0x0000000000004db7       0x90 subsys/bluetooth/controller/libsubsys__bluetooth__controller.a(util.c.obj)
 .debug_abbrev  0x0000000000004e47      0x4ba subsys/bluetooth/controller/libsubsys__bluetooth__controller.a(ticker.c.obj)
 .debug_abbrev  0x0000000000005301       0xe2 subsys/bluetooth/controller/libsubsys__bluetooth__controller.a(ll_addr.c.obj)
 .debug_abbrev  0x00000000000053e3       0x9f subsys/bluetooth/controller/libsubsys__bluetooth__controller.a(ll_tx_pwr.c.obj)
 .debug_abbrev  0x0000000000005482      0x240 subsys/bluetooth/controller/libsubsys__bluetooth__controller.a(crypto.c.obj)
 .debug_abbrev  0x00000000000056c2      0x428 subsys/bluetooth/controller/libsubsys__bluetooth__controller.a(hci_driver.c.obj)
 .debug_abbrev  0x0000000000005aea      0x5d5 subsys/bluetooth/controller/libsubsys__bluetooth__controller.a(hci.c.obj)
 .debug_abbrev  0x00000000000060bf      0x6a4 subsys/bluetooth/controller/libsubsys__bluetooth__controller.a(ctrl.c.obj)
 .debug_abbrev  0x0000000000006763      0x3b6 subsys/bluetooth/controller/libsubsys__bluetooth__controller.a(ll.c.obj)
 .debug_abbrev  0x0000000000006b19      0x376 subsys/bluetooth/controller/libsubsys__bluetooth__controller.a(ll_adv.c.obj)
 .debug_abbrev  0x0000000000006e8f      0x245 subsys/bluetooth/controller/libsubsys__bluetooth__controller.a(ll_scan.c.obj)
 .debug_abbrev  0x00000000000070d4      0x336 subsys/bluetooth/controller/libsubsys__bluetooth__controller.a(ll_filter.c.obj)
 .debug_abbrev  0x000000000000740a      0x298 subsys/bluetooth/controller/libsubsys__bluetooth__controller.a(cntr.c.obj)
 .debug_abbrev  0x00000000000076a2      0x38f subsys/bluetooth/controller/libsubsys__bluetooth__controller.a(ecb.c.obj)
 .debug_abbrev  0x0000000000007a31      0x5db subsys/bluetooth/controller/libsubsys__bluetooth__controller.a(radio.c.obj)
 .debug_abbrev  0x000000000000800c      0x2fe subsys/bluetooth/controller/libsubsys__bluetooth__controller.a(mayfly.c.obj)
 .debug_abbrev  0x000000000000830a      0x290 subsys/bluetooth/controller/libsubsys__bluetooth__controller.a(ticker.c.obj)
 .debug_abbrev  0x000000000000859a      0x58d subsys/net/libsubsys__net.a(buf.c.obj)
 .debug_abbrev  0x0000000000008b27      0x4d4 drivers/gpio/libdrivers__gpio.a(gpio_nrf5.c.obj)
 .debug_abbrev  0x0000000000008ffb      0x3dc drivers/serial/libdrivers__serial.a(uart_nrfx_uart.c.obj)
 .debug_abbrev  0x00000000000093d7      0x3d1 drivers/entropy/libdrivers__entropy.a(entropy_nrf5.c.obj)
 .debug_abbrev  0x00000000000097a8      0x285 kernel/libkernel.a(device.c.obj)
 .debug_abbrev  0x0000000000009a2d      0x1ab kernel/libkernel.a(errno.c.obj)
 .debug_abbrev  0x0000000000009bd8      0x312 kernel/libkernel.a(idle.c.obj)
 .debug_abbrev  0x0000000000009eea      0x4bb kernel/libkernel.a(init.c.obj)
 .debug_abbrev  0x000000000000a3a5      0x354 kernel/libkernel.a(mempool.c.obj)
 .debug_abbrev  0x000000000000a6f9      0x49e kernel/libkernel.a(queue.c.obj)
 .debug_abbrev  0x000000000000ab97      0x5d1 kernel/libkernel.a(sched.c.obj)
 .debug_abbrev  0x000000000000b168      0x368 kernel/libkernel.a(sem.c.obj)
 .debug_abbrev  0x000000000000b4d0      0x3ff kernel/libkernel.a(sys_clock.c.obj)
 .debug_abbrev  0x000000000000b8cf      0x20e kernel/libkernel.a(system_work_q.c.obj)
 .debug_abbrev  0x000000000000badd      0x569 kernel/libkernel.a(thread.c.obj)
 .debug_abbrev  0x000000000000c046      0x4b4 kernel/libkernel.a(work_q.c.obj)
 .debug_abbrev  0x000000000000c4fa      0x4de kernel/libkernel.a(poll.c.obj)
 .debug_abbrev  0x000000000000c9d8      0x1b0 CMakeFiles/offsets.dir/arch/arm/core/offsets/offsets.c.obj
 .debug_abbrev  0x000000000000cb88       0x14 /opt/zephyr-sdk/sysroots/armv5-zephyr-eabi/usr/lib/arm-zephyr-eabi/6.2.0/armv7e-m/libgcc.a(_aeabi_uldivmod.o)
 .debug_abbrev  0x000000000000cb9c      0x135 /opt/zephyr-sdk/sysroots/armv5-zephyr-eabi/usr/lib/arm-zephyr-eabi/6.2.0/armv7e-m/libgcc.a(_popcountsi2.o)
 .debug_abbrev  0x000000000000ccd1      0x18c /opt/zephyr-sdk/sysroots/armv5-zephyr-eabi/usr/lib/arm-zephyr-eabi/6.2.0/armv7e-m/libgcc.a(_udivmoddi4.o)
 .debug_abbrev  0x000000000000ce5d       0x14 /opt/zephyr-sdk/sysroots/armv5-zephyr-eabi/usr/lib/arm-zephyr-eabi/6.2.0/armv7e-m/libgcc.a(_dvmd_tls.o)

.debug_aranges  0x0000000000000000     0x1a18
 .debug_aranges
                0x0000000000000000       0x18 CMakeFiles/kernel_elf.dir/isr_tables.c.obj
 .debug_aranges
                0x0000000000000018       0x28 ../libapp.a(main.c.obj)
 .debug_aranges
                0x0000000000000040       0x20 libzephyr.a(isr_tables.c.obj)
 .debug_aranges
                0x0000000000000060       0x18 libzephyr.a(mpu_regions.c.obj)
 .debug_aranges
                0x0000000000000078       0x28 libzephyr.a(soc.c.obj)
 .debug_aranges
                0x00000000000000a0       0x20 libzephyr.a(thread_entry.c.obj)
 .debug_aranges
                0x00000000000000c0       0x58 libzephyr.a(mempool.c.obj)
 .debug_aranges
                0x0000000000000118       0x78 libzephyr.a(printk.c.obj)
 .debug_aranges
                0x0000000000000190       0x20 libzephyr.a(configs.c.obj)
 .debug_aranges
                0x00000000000001b0       0x20 libzephyr.a(rand32_entropy_device.c.obj)
 .debug_aranges
                0x00000000000001d0       0x30 libzephyr.a(uart_console.c.obj)
 .debug_aranges
                0x0000000000000200       0x40 libzephyr.a(nrf5_power_clock.c.obj)
 .debug_aranges
                0x0000000000000240       0x18 libzephyr.a(sys_clock_init.c.obj)
 .debug_aranges
                0x0000000000000258       0x50 libzephyr.a(nrf_rtc_timer.c.obj)
 .debug_aranges
                0x00000000000002a8       0x20 arch/arm/core/libarch__arm__core.a(exc_exit.S.obj)
 .debug_aranges
                0x00000000000002c8       0x20 arch/arm/core/libarch__arm__core.a(irq_init.c.obj)
 .debug_aranges
                0x00000000000002e8       0x20 arch/arm/core/libarch__arm__core.a(swap.c.obj)
 .debug_aranges
                0x0000000000000308       0x28 arch/arm/core/libarch__arm__core.a(swap_helper.S.obj)
 .debug_aranges
                0x0000000000000330       0x48 arch/arm/core/libarch__arm__core.a(fault.c.obj)
 .debug_aranges
                0x0000000000000378       0x48 arch/arm/core/libarch__arm__core.a(irq_manage.c.obj)
 .debug_aranges
                0x00000000000003c0       0x20 arch/arm/core/libarch__arm__core.a(thread.c.obj)
 .debug_aranges
                0x00000000000003e0       0x40 arch/arm/core/libarch__arm__core.a(cpu_idle.S.obj)
 .debug_aranges
                0x0000000000000420       0x20 arch/arm/core/libarch__arm__core.a(fault_s.S.obj)
 .debug_aranges
                0x0000000000000440       0x30 arch/arm/core/libarch__arm__core.a(fatal.c.obj)
 .debug_aranges
                0x0000000000000470       0x20 arch/arm/core/libarch__arm__core.a(sys_fatal_error_handler.c.obj)
 .debug_aranges
                0x0000000000000490       0x20 arch/arm/core/libarch__arm__core.a(thread_abort.c.obj)
 .debug_aranges
                0x00000000000004b0       0x20 arch/arm/core/libarch__arm__core.a(isr_wrapper.S.obj)
 .debug_aranges
                0x00000000000004d0       0x20 arch/arm/core/cortex_m/libarch__arm__core__cortex_m.a(reset.S.obj)
 .debug_aranges
                0x00000000000004f0       0x20 arch/arm/core/cortex_m/libarch__arm__core__cortex_m.a(nmi_on_reset.S.obj)
 .debug_aranges
                0x0000000000000510       0x20 arch/arm/core/cortex_m/libarch__arm__core__cortex_m.a(prep_c.c.obj)
 .debug_aranges
                0x0000000000000530       0x20 arch/arm/core/cortex_m/libarch__arm__core__cortex_m.a(nmi.c.obj)
 .debug_aranges
                0x0000000000000550       0x38 arch/arm/core/cortex_m/mpu/libarch__arm__core__cortex_m__mpu.a(arm_mpu.c.obj)
 .debug_aranges
                0x0000000000000588       0x88 lib/libc/minimal/liblib__libc__minimal.a(string.c.obj)
 .debug_aranges
                0x0000000000000610       0x30 subsys/bluetooth/common/libsubsys__bluetooth__common.a(log.c.obj)
 .debug_aranges
                0x0000000000000640      0x148 subsys/bluetooth/host/libsubsys__bluetooth__host.a(hci_core.c.obj)
 .debug_aranges
                0x0000000000000788       0x60 subsys/bluetooth/controller/libsubsys__bluetooth__controller.a(mem.c.obj)
 .debug_aranges
                0x00000000000007e8       0x38 subsys/bluetooth/controller/libsubsys__bluetooth__controller.a(memq.c.obj)
 .debug_aranges
                0x0000000000000820       0x38 subsys/bluetooth/controller/libsubsys__bluetooth__controller.a(mayfly.c.obj)
 .debug_aranges
                0x0000000000000858       0x20 subsys/bluetooth/controller/libsubsys__bluetooth__controller.a(util.c.obj)
 .debug_aranges
                0x0000000000000878       0x98 subsys/bluetooth/controller/libsubsys__bluetooth__controller.a(ticker.c.obj)
 .debug_aranges
                0x0000000000000910       0x28 subsys/bluetooth/controller/libsubsys__bluetooth__controller.a(ll_addr.c.obj)
 .debug_aranges
                0x0000000000000938       0x28 subsys/bluetooth/controller/libsubsys__bluetooth__controller.a(ll_tx_pwr.c.obj)
 .debug_aranges
                0x0000000000000960       0x30 subsys/bluetooth/controller/libsubsys__bluetooth__controller.a(crypto.c.obj)
 .debug_aranges
                0x0000000000000990       0x40 subsys/bluetooth/controller/libsubsys__bluetooth__controller.a(hci_driver.c.obj)
 .debug_aranges
                0x00000000000009d0       0x88 subsys/bluetooth/controller/libsubsys__bluetooth__controller.a(hci.c.obj)
 .debug_aranges
                0x0000000000000a58      0x370 subsys/bluetooth/controller/libsubsys__bluetooth__controller.a(ctrl.c.obj)
 .debug_aranges
                0x0000000000000dc8       0x50 subsys/bluetooth/controller/libsubsys__bluetooth__controller.a(ll.c.obj)
 .debug_aranges
                0x0000000000000e18       0x40 subsys/bluetooth/controller/libsubsys__bluetooth__controller.a(ll_adv.c.obj)
 .debug_aranges
                0x0000000000000e58       0x28 subsys/bluetooth/controller/libsubsys__bluetooth__controller.a(ll_scan.c.obj)
 .debug_aranges
                0x0000000000000e80       0x48 subsys/bluetooth/controller/libsubsys__bluetooth__controller.a(ll_filter.c.obj)
 .debug_aranges
                0x0000000000000ec8       0x40 subsys/bluetooth/controller/libsubsys__bluetooth__controller.a(cntr.c.obj)
 .debug_aranges
                0x0000000000000f08       0x50 subsys/bluetooth/controller/libsubsys__bluetooth__controller.a(ecb.c.obj)
 .debug_aranges
                0x0000000000000f58      0x240 subsys/bluetooth/controller/libsubsys__bluetooth__controller.a(radio.c.obj)
 .debug_aranges
                0x0000000000001198       0x38 subsys/bluetooth/controller/libsubsys__bluetooth__controller.a(mayfly.c.obj)
 .debug_aranges
                0x00000000000011d0       0x30 subsys/bluetooth/controller/libsubsys__bluetooth__controller.a(ticker.c.obj)
 .debug_aranges
                0x0000000000001200      0x168 subsys/net/libsubsys__net.a(buf.c.obj)
 .debug_aranges
                0x0000000000001368       0x78 drivers/gpio/libdrivers__gpio.a(gpio_nrf5.c.obj)
 .debug_aranges
                0x00000000000013e0       0x38 drivers/serial/libdrivers__serial.a(uart_nrfx_uart.c.obj)
 .debug_aranges
                0x0000000000001418       0x50 drivers/entropy/libdrivers__entropy.a(entropy_nrf5.c.obj)
 .debug_aranges
                0x0000000000001468       0x30 kernel/libkernel.a(device.c.obj)
 .debug_aranges
                0x0000000000001498       0x20 kernel/libkernel.a(errno.c.obj)
 .debug_aranges
                0x00000000000014b8       0x30 kernel/libkernel.a(idle.c.obj)
 .debug_aranges
                0x00000000000014e8       0x50 kernel/libkernel.a(init.c.obj)
 .debug_aranges
                0x0000000000001538       0x50 kernel/libkernel.a(mempool.c.obj)
 .debug_aranges
                0x0000000000001588       0x78 kernel/libkernel.a(queue.c.obj)
 .debug_aranges
                0x0000000000001600      0x158 kernel/libkernel.a(sched.c.obj)
 .debug_aranges
                0x0000000000001758       0x38 kernel/libkernel.a(sem.c.obj)
 .debug_aranges
                0x0000000000001790       0x50 kernel/libkernel.a(sys_clock.c.obj)
 .debug_aranges
                0x00000000000017e0       0x20 kernel/libkernel.a(system_work_q.c.obj)
 .debug_aranges
                0x0000000000001800       0xc8 kernel/libkernel.a(thread.c.obj)
 .debug_aranges
                0x00000000000018c8       0x50 kernel/libkernel.a(work_q.c.obj)
 .debug_aranges
                0x0000000000001918       0x60 kernel/libkernel.a(poll.c.obj)
 .debug_aranges
                0x0000000000001978       0x20 CMakeFiles/offsets.dir/arch/arm/core/offsets/offsets.c.obj
 .debug_aranges
                0x0000000000001998       0x20 /opt/zephyr-sdk/sysroots/armv5-zephyr-eabi/usr/lib/arm-zephyr-eabi/6.2.0/armv7e-m/libgcc.a(_aeabi_uldivmod.o)
 .debug_aranges
                0x00000000000019b8       0x20 /opt/zephyr-sdk/sysroots/armv5-zephyr-eabi/usr/lib/arm-zephyr-eabi/6.2.0/armv7e-m/libgcc.a(_popcountsi2.o)
 .debug_aranges
                0x00000000000019d8       0x20 /opt/zephyr-sdk/sysroots/armv5-zephyr-eabi/usr/lib/arm-zephyr-eabi/6.2.0/armv7e-m/libgcc.a(_udivmoddi4.o)
 .debug_aranges
                0x00000000000019f8       0x20 /opt/zephyr-sdk/sysroots/armv5-zephyr-eabi/usr/lib/arm-zephyr-eabi/6.2.0/armv7e-m/libgcc.a(_dvmd_tls.o)

.debug_line     0x0000000000000000    0x1545d
 .debug_line    0x0000000000000000       0xf5 CMakeFiles/kernel_elf.dir/isr_tables.c.obj
 .debug_line    0x00000000000000f5      0x36d ../libapp.a(main.c.obj)
 .debug_line    0x0000000000000462       0xda libzephyr.a(isr_tables.c.obj)
 .debug_line    0x000000000000053c      0x337 libzephyr.a(mpu_regions.c.obj)
 .debug_line    0x0000000000000873      0x46c libzephyr.a(soc.c.obj)
 .debug_line    0x0000000000000cdf      0x28a libzephyr.a(thread_entry.c.obj)
 .debug_line    0x0000000000000f69      0x539 libzephyr.a(mempool.c.obj)
 .debug_line    0x00000000000014a2      0x3f9 libzephyr.a(printk.c.obj)
 .debug_line    0x000000000000189b      0x170 libzephyr.a(configs.c.obj)
 .debug_line    0x0000000000001a0b      0x364 libzephyr.a(rand32_entropy_device.c.obj)
 .debug_line    0x0000000000001d6f      0x3be libzephyr.a(uart_console.c.obj)
 .debug_line    0x000000000000212d      0x4f3 libzephyr.a(nrf5_power_clock.c.obj)
 .debug_line    0x0000000000002620      0x251 libzephyr.a(sys_clock_init.c.obj)
 .debug_line    0x0000000000002871      0x494 libzephyr.a(nrf_rtc_timer.c.obj)
 .debug_line    0x0000000000002d05       0x7b arch/arm/core/libarch__arm__core.a(exc_exit.S.obj)
 .debug_line    0x0000000000002d80      0x32c arch/arm/core/libarch__arm__core.a(irq_init.c.obj)
 .debug_line    0x00000000000030ac      0x3e4 arch/arm/core/libarch__arm__core.a(swap.c.obj)
 .debug_line    0x0000000000003490       0xb2 arch/arm/core/libarch__arm__core.a(swap_helper.S.obj)
 .debug_line    0x0000000000003542      0x550 arch/arm/core/libarch__arm__core.a(fault.c.obj)
 .debug_line    0x0000000000003a92      0x499 arch/arm/core/libarch__arm__core.a(irq_manage.c.obj)
 .debug_line    0x0000000000003f2b      0x451 arch/arm/core/libarch__arm__core.a(thread.c.obj)
 .debug_line    0x000000000000437c       0xbd arch/arm/core/libarch__arm__core.a(cpu_idle.S.obj)
 .debug_line    0x0000000000004439       0x76 arch/arm/core/libarch__arm__core.a(fault_s.S.obj)
 .debug_line    0x00000000000044af      0x498 arch/arm/core/libarch__arm__core.a(fatal.c.obj)
 .debug_line    0x0000000000004947      0x489 arch/arm/core/libarch__arm__core.a(sys_fatal_error_handler.c.obj)
 .debug_line    0x0000000000004dd0      0x44b arch/arm/core/libarch__arm__core.a(thread_abort.c.obj)
 .debug_line    0x000000000000521b       0x89 arch/arm/core/libarch__arm__core.a(isr_wrapper.S.obj)
 .debug_line    0x00000000000052a4       0x7c arch/arm/core/cortex_m/libarch__arm__core__cortex_m.a(reset.S.obj)
 .debug_line    0x0000000000005320       0x75 arch/arm/core/cortex_m/libarch__arm__core__cortex_m.a(nmi_on_reset.S.obj)
 .debug_line    0x0000000000005395      0x397 arch/arm/core/cortex_m/libarch__arm__core__cortex_m.a(prep_c.c.obj)
 .debug_line    0x000000000000572c      0x257 arch/arm/core/cortex_m/libarch__arm__core__cortex_m.a(nmi.c.obj)
 .debug_line    0x0000000000005983      0x4e9 arch/arm/core/cortex_m/mpu/libarch__arm__core__cortex_m__mpu.a(arm_mpu.c.obj)
 .debug_line    0x0000000000005e6c      0x258 lib/libc/minimal/liblib__libc__minimal.a(string.c.obj)
 .debug_line    0x00000000000060c4      0x3cb subsys/bluetooth/common/libsubsys__bluetooth__common.a(log.c.obj)
 .debug_line    0x000000000000648f      0xf95 subsys/bluetooth/host/libsubsys__bluetooth__host.a(hci_core.c.obj)
 .debug_line    0x0000000000007424      0x1e2 subsys/bluetooth/controller/libsubsys__bluetooth__controller.a(mem.c.obj)
 .debug_line    0x0000000000007606       0xcb subsys/bluetooth/controller/libsubsys__bluetooth__controller.a(memq.c.obj)
 .debug_line    0x00000000000076d1      0x191 subsys/bluetooth/controller/libsubsys__bluetooth__controller.a(mayfly.c.obj)
 .debug_line    0x0000000000007862       0xbc subsys/bluetooth/controller/libsubsys__bluetooth__controller.a(util.c.obj)
 .debug_line    0x000000000000791e      0x8be subsys/bluetooth/controller/libsubsys__bluetooth__controller.a(ticker.c.obj)
 .debug_line    0x00000000000081dc      0x178 subsys/bluetooth/controller/libsubsys__bluetooth__controller.a(ll_addr.c.obj)
 .debug_line    0x0000000000008354       0xc8 subsys/bluetooth/controller/libsubsys__bluetooth__controller.a(ll_tx_pwr.c.obj)
 .debug_line    0x000000000000841c      0x433 subsys/bluetooth/controller/libsubsys__bluetooth__controller.a(crypto.c.obj)
 .debug_line    0x000000000000884f      0x61c subsys/bluetooth/controller/libsubsys__bluetooth__controller.a(hci_driver.c.obj)
 .debug_line    0x0000000000008e6b      0x92e subsys/bluetooth/controller/libsubsys__bluetooth__controller.a(hci.c.obj)
 .debug_line    0x0000000000009799     0x2114 subsys/bluetooth/controller/libsubsys__bluetooth__controller.a(ctrl.c.obj)
 .debug_line    0x000000000000b8ad      0x620 subsys/bluetooth/controller/libsubsys__bluetooth__controller.a(ll.c.obj)
 .debug_line    0x000000000000becd      0x41f subsys/bluetooth/controller/libsubsys__bluetooth__controller.a(ll_adv.c.obj)
 .debug_line    0x000000000000c2ec      0x2a7 subsys/bluetooth/controller/libsubsys__bluetooth__controller.a(ll_scan.c.obj)
 .debug_line    0x000000000000c593      0x3fc subsys/bluetooth/controller/libsubsys__bluetooth__controller.a(ll_filter.c.obj)
 .debug_line    0x000000000000c98f      0x3e2 subsys/bluetooth/controller/libsubsys__bluetooth__controller.a(cntr.c.obj)
 .debug_line    0x000000000000cd71      0x563 subsys/bluetooth/controller/libsubsys__bluetooth__controller.a(ecb.c.obj)
 .debug_line    0x000000000000d2d4      0xaa2 subsys/bluetooth/controller/libsubsys__bluetooth__controller.a(radio.c.obj)
 .debug_line    0x000000000000dd76      0x440 subsys/bluetooth/controller/libsubsys__bluetooth__controller.a(mayfly.c.obj)
 .debug_line    0x000000000000e1b6      0x3b8 subsys/bluetooth/controller/libsubsys__bluetooth__controller.a(ticker.c.obj)
 .debug_line    0x000000000000e56e      0x93e subsys/net/libsubsys__net.a(buf.c.obj)
 .debug_line    0x000000000000eeac      0x582 drivers/gpio/libdrivers__gpio.a(gpio_nrf5.c.obj)
 .debug_line    0x000000000000f42e      0x4af drivers/serial/libdrivers__serial.a(uart_nrfx_uart.c.obj)
 .debug_line    0x000000000000f8dd      0x4fa drivers/entropy/libdrivers__entropy.a(entropy_nrf5.c.obj)
 .debug_line    0x000000000000fdd7      0x2a3 kernel/libkernel.a(device.c.obj)
 .debug_line    0x000000000001007a      0x37d kernel/libkernel.a(errno.c.obj)
 .debug_line    0x00000000000103f7      0x49b kernel/libkernel.a(idle.c.obj)
 .debug_line    0x0000000000010892      0x600 kernel/libkernel.a(init.c.obj)
 .debug_line    0x0000000000010e92      0x536 kernel/libkernel.a(mempool.c.obj)
 .debug_line    0x00000000000113c8      0x716 kernel/libkernel.a(queue.c.obj)
 .debug_line    0x0000000000011ade      0xba4 kernel/libkernel.a(sched.c.obj)
 .debug_line    0x0000000000012682      0x4de kernel/libkernel.a(sem.c.obj)
 .debug_line    0x0000000000012b60      0x68e kernel/libkernel.a(sys_clock.c.obj)
 .debug_line    0x00000000000131ee      0x219 kernel/libkernel.a(system_work_q.c.obj)
 .debug_line    0x0000000000013407      0x88d kernel/libkernel.a(thread.c.obj)
 .debug_line    0x0000000000013c94      0x6cf kernel/libkernel.a(work_q.c.obj)
 .debug_line    0x0000000000014363      0x6dd kernel/libkernel.a(poll.c.obj)
 .debug_line    0x0000000000014a40      0x456 CMakeFiles/offsets.dir/arch/arm/core/offsets/offsets.c.obj
 .debug_line    0x0000000000014e96       0x89 /opt/zephyr-sdk/sysroots/armv5-zephyr-eabi/usr/lib/arm-zephyr-eabi/6.2.0/armv7e-m/libgcc.a(_aeabi_uldivmod.o)
 .debug_line    0x0000000000014f1f      0x1bc /opt/zephyr-sdk/sysroots/armv5-zephyr-eabi/usr/lib/arm-zephyr-eabi/6.2.0/armv7e-m/libgcc.a(_popcountsi2.o)
 .debug_line    0x00000000000150db      0x2f9 /opt/zephyr-sdk/sysroots/armv5-zephyr-eabi/usr/lib/arm-zephyr-eabi/6.2.0/armv7e-m/libgcc.a(_udivmoddi4.o)
 .debug_line    0x00000000000153d4       0x89 /opt/zephyr-sdk/sysroots/armv5-zephyr-eabi/usr/lib/arm-zephyr-eabi/6.2.0/armv7e-m/libgcc.a(_dvmd_tls.o)

.debug_str      0x0000000000000000     0xd334
 .debug_str     0x0000000000000000      0x1dc CMakeFiles/kernel_elf.dir/isr_tables.c.obj
                                        0x1f5 (size before relaxing)
 .debug_str     0x00000000000001dc      0x552 ../libapp.a(main.c.obj)
                                        0x821 (size before relaxing)
 .debug_str     0x000000000000072e       0x85 libzephyr.a(isr_tables.c.obj)
                                        0x21e (size before relaxing)
 .debug_str     0x00000000000007b3      0x144 libzephyr.a(mpu_regions.c.obj)
                                        0x62f (size before relaxing)
 .debug_str     0x00000000000008f7      0x938 libzephyr.a(soc.c.obj)
                                        0xf06 (size before relaxing)
 .debug_str     0x000000000000122f       0x82 libzephyr.a(thread_entry.c.obj)
                                        0x5ae (size before relaxing)
 .debug_str     0x00000000000012b1      0x24e libzephyr.a(mempool.c.obj)
                                        0x7b6 (size before relaxing)
 .debug_str     0x00000000000014ff      0x18d libzephyr.a(printk.c.obj)
                                        0x805 (size before relaxing)
 .debug_str     0x000000000000168c       0x7e libzephyr.a(configs.c.obj)
                                        0x167 (size before relaxing)
 .debug_str     0x000000000000170a      0x13d libzephyr.a(rand32_entropy_device.c.obj)
                                        0x727 (size before relaxing)
 .debug_str     0x0000000000001847       0xee libzephyr.a(uart_console.c.obj)
                                        0x732 (size before relaxing)
 .debug_str     0x0000000000001935      0x56f libzephyr.a(nrf5_power_clock.c.obj)
                                        0xe00 (size before relaxing)
 .debug_str     0x0000000000001ea4       0xaa libzephyr.a(sys_clock_init.c.obj)
                                        0x65e (size before relaxing)
 .debug_str     0x0000000000001f4e      0x1f0 libzephyr.a(nrf_rtc_timer.c.obj)
                                        0xc13 (size before relaxing)
 .debug_str     0x000000000000213e       0xc4 arch/arm/core/libarch__arm__core.a(irq_init.c.obj)
                                        0x964 (size before relaxing)
 .debug_str     0x0000000000002202       0xa7 arch/arm/core/libarch__arm__core.a(swap.c.obj)
                                        0x704 (size before relaxing)
 .debug_str     0x00000000000022a9      0x104 arch/arm/core/libarch__arm__core.a(fault.c.obj)
                                        0x7e5 (size before relaxing)
 .debug_str     0x00000000000023ad      0x126 arch/arm/core/libarch__arm__core.a(irq_manage.c.obj)
                                        0xb3c (size before relaxing)
 .debug_str     0x00000000000024d3       0xd5 arch/arm/core/libarch__arm__core.a(thread.c.obj)
                                        0x770 (size before relaxing)
 .debug_str     0x00000000000025a8       0x99 arch/arm/core/libarch__arm__core.a(fatal.c.obj)
                                        0x73f (size before relaxing)
 .debug_str     0x0000000000002641       0x7f arch/arm/core/libarch__arm__core.a(sys_fatal_error_handler.c.obj)
                                        0x72c (size before relaxing)
 .debug_str     0x00000000000026c0       0x78 arch/arm/core/libarch__arm__core.a(thread_abort.c.obj)
                                        0x779 (size before relaxing)
 .debug_str     0x0000000000002738      0x22b arch/arm/core/cortex_m/libarch__arm__core__cortex_m.a(prep_c.c.obj)
                                        0x7ef (size before relaxing)
 .debug_str     0x0000000000002963       0x5a arch/arm/core/cortex_m/libarch__arm__core__cortex_m.a(nmi.c.obj)
                                        0x57a (size before relaxing)
 .debug_str     0x00000000000029bd      0x23a arch/arm/core/cortex_m/mpu/libarch__arm__core__cortex_m__mpu.a(arm_mpu.c.obj)
                                        0xa05 (size before relaxing)
 .debug_str     0x0000000000002bf7       0xdb lib/libc/minimal/liblib__libc__minimal.a(string.c.obj)
                                        0x1fd (size before relaxing)
 .debug_str     0x0000000000002cd2       0xfd subsys/bluetooth/common/libsubsys__bluetooth__common.a(log.c.obj)
                                        0x6cb (size before relaxing)
 .debug_str     0x0000000000002dcf     0x1479 subsys/bluetooth/host/libsubsys__bluetooth__host.a(hci_core.c.obj)
                                       0x1f98 (size before relaxing)
 .debug_str     0x0000000000004248       0xe4 subsys/bluetooth/controller/libsubsys__bluetooth__controller.a(mem.c.obj)
                                        0x29f (size before relaxing)
 .debug_str     0x000000000000432c       0x8c subsys/bluetooth/controller/libsubsys__bluetooth__controller.a(memq.c.obj)
                                        0x1f2 (size before relaxing)
 .debug_str     0x00000000000043b8      0x110 subsys/bluetooth/controller/libsubsys__bluetooth__controller.a(mayfly.c.obj)
                                        0x2fa (size before relaxing)
 .debug_str     0x00000000000044c8       0x75 subsys/bluetooth/controller/libsubsys__bluetooth__controller.a(util.c.obj)
                                        0x1d3 (size before relaxing)
 .debug_str     0x000000000000453d      0x836 subsys/bluetooth/controller/libsubsys__bluetooth__controller.a(ticker.c.obj)
                                        0xf15 (size before relaxing)
 .debug_str     0x0000000000004d73       0x9a subsys/bluetooth/controller/libsubsys__bluetooth__controller.a(ll_addr.c.obj)
                                        0x218 (size before relaxing)
 .debug_str     0x0000000000004e0d       0x78 subsys/bluetooth/controller/libsubsys__bluetooth__controller.a(ll_tx_pwr.c.obj)
                                        0x1ec (size before relaxing)
 .debug_str     0x0000000000004e85       0x95 subsys/bluetooth/controller/libsubsys__bluetooth__controller.a(crypto.c.obj)
                                        0x73d (size before relaxing)
 .debug_str     0x0000000000004f1a      0x315 subsys/bluetooth/controller/libsubsys__bluetooth__controller.a(hci_driver.c.obj)
                                        0xd3a (size before relaxing)
 .debug_str     0x000000000000522f     0x117a subsys/bluetooth/controller/libsubsys__bluetooth__controller.a(hci.c.obj)
                                       0x24fe (size before relaxing)
 .debug_str     0x00000000000063a9     0x1e2a subsys/bluetooth/controller/libsubsys__bluetooth__controller.a(ctrl.c.obj)
                                       0x38d3 (size before relaxing)
 .debug_str     0x00000000000081d3      0x1bd subsys/bluetooth/controller/libsubsys__bluetooth__controller.a(ll.c.obj)
                                        0xb18 (size before relaxing)
 .debug_str     0x0000000000008390       0xbe subsys/bluetooth/controller/libsubsys__bluetooth__controller.a(ll_adv.c.obj)
                                        0xb2e (size before relaxing)
 .debug_str     0x000000000000844e       0x53 subsys/bluetooth/controller/libsubsys__bluetooth__controller.a(ll_scan.c.obj)
                                        0x720 (size before relaxing)
 .debug_str     0x00000000000084a1       0x9d subsys/bluetooth/controller/libsubsys__bluetooth__controller.a(ll_filter.c.obj)
                                        0x89b (size before relaxing)
 .debug_str     0x000000000000853e       0x62 subsys/bluetooth/controller/libsubsys__bluetooth__controller.a(cntr.c.obj)
                                        0x807 (size before relaxing)
 .debug_str     0x00000000000085a0      0x17e subsys/bluetooth/controller/libsubsys__bluetooth__controller.a(ecb.c.obj)
                                        0xbf4 (size before relaxing)
 .debug_str     0x000000000000871e      0x78a subsys/bluetooth/controller/libsubsys__bluetooth__controller.a(radio.c.obj)
                                       0x1687 (size before relaxing)
 .debug_str     0x0000000000008ea8       0x4d subsys/bluetooth/controller/libsubsys__bluetooth__controller.a(mayfly.c.obj)
                                        0xa93 (size before relaxing)
 .debug_str     0x0000000000008ef5       0xba subsys/bluetooth/controller/libsubsys__bluetooth__controller.a(ticker.c.obj)
                                        0x83c (size before relaxing)
 .debug_str     0x0000000000008faf      0x49d subsys/net/libsubsys__net.a(buf.c.obj)
                                        0xd44 (size before relaxing)
 .debug_str     0x000000000000944c      0x50b drivers/gpio/libdrivers__gpio.a(gpio_nrf5.c.obj)
                                        0xc57 (size before relaxing)
 .debug_str     0x0000000000009957      0x698 drivers/serial/libdrivers__serial.a(uart_nrfx_uart.c.obj)
                                        0xe81 (size before relaxing)
 .debug_str     0x0000000000009fef      0x1c7 drivers/entropy/libdrivers__entropy.a(entropy_nrf5.c.obj)
                                        0x90a (size before relaxing)
 .debug_str     0x000000000000a1b6      0x184 kernel/libkernel.a(device.c.obj)
                                        0x707 (size before relaxing)
 .debug_str     0x000000000000a33a       0x36 kernel/libkernel.a(errno.c.obj)
                                        0x681 (size before relaxing)
 .debug_str     0x000000000000a370      0x107 kernel/libkernel.a(idle.c.obj)
                                        0x7d1 (size before relaxing)
 .debug_str     0x000000000000a477      0x245 kernel/libkernel.a(init.c.obj)
                                        0xf8d (size before relaxing)
 .debug_str     0x000000000000a6bc      0x17d kernel/libkernel.a(mempool.c.obj)
                                        0x98a (size before relaxing)
 .debug_str     0x000000000000a839      0x29e kernel/libkernel.a(queue.c.obj)
                                        0xc14 (size before relaxing)
 .debug_str     0x000000000000aad7      0x60a kernel/libkernel.a(sched.c.obj)
                                        0xf2f (size before relaxing)
 .debug_str     0x000000000000b0e1       0xa9 kernel/libkernel.a(sem.c.obj)
                                        0x94d (size before relaxing)
 .debug_str     0x000000000000b18a      0x10b kernel/libkernel.a(sys_clock.c.obj)
                                        0x9cc (size before relaxing)
 .debug_str     0x000000000000b295       0xb2 kernel/libkernel.a(system_work_q.c.obj)
                                        0x68a (size before relaxing)
 .debug_str     0x000000000000b347      0x2ef kernel/libkernel.a(thread.c.obj)
                                        0xe09 (size before relaxing)
 .debug_str     0x000000000000b636      0x126 kernel/libkernel.a(work_q.c.obj)
                                        0xc60 (size before relaxing)
 .debug_str     0x000000000000b75c      0x173 kernel/libkernel.a(poll.c.obj)
                                        0xbe2 (size before relaxing)
 .debug_str     0x000000000000b8cf      0xdfa CMakeFiles/offsets.dir/arch/arm/core/offsets/offsets.c.obj
                                       0x1430 (size before relaxing)
 .debug_str     0x000000000000c6c9      0xb74 /opt/zephyr-sdk/sysroots/armv5-zephyr-eabi/usr/lib/arm-zephyr-eabi/6.2.0/armv7e-m/libgcc.a(_popcountsi2.o)
                                        0xc51 (size before relaxing)
 .debug_str     0x000000000000d23d       0xf7 /opt/zephyr-sdk/sysroots/armv5-zephyr-eabi/usr/lib/arm-zephyr-eabi/6.2.0/armv7e-m/libgcc.a(_udivmoddi4.o)
                                        0xcac (size before relaxing)

.comment        0x0000000000000000       0x11
 .comment       0x0000000000000000       0x11 CMakeFiles/kernel_elf.dir/isr_tables.c.obj
                                         0x12 (size before relaxing)
 .comment       0x0000000000000011       0x12 ../libapp.a(main.c.obj)
 .comment       0x0000000000000011       0x12 libzephyr.a(isr_tables.c.obj)
 .comment       0x0000000000000011       0x12 libzephyr.a(mpu_regions.c.obj)
 .comment       0x0000000000000011       0x12 libzephyr.a(soc.c.obj)
 .comment       0x0000000000000011       0x12 libzephyr.a(thread_entry.c.obj)
 .comment       0x0000000000000011       0x12 libzephyr.a(mempool.c.obj)
 .comment       0x0000000000000011       0x12 libzephyr.a(printk.c.obj)
 .comment       0x0000000000000011       0x12 libzephyr.a(configs.c.obj)
 .comment       0x0000000000000011       0x12 libzephyr.a(rand32_entropy_device.c.obj)
 .comment       0x0000000000000011       0x12 libzephyr.a(uart_console.c.obj)
 .comment       0x0000000000000011       0x12 libzephyr.a(nrf5_power_clock.c.obj)
 .comment       0x0000000000000011       0x12 libzephyr.a(sys_clock_init.c.obj)
 .comment       0x0000000000000011       0x12 libzephyr.a(nrf_rtc_timer.c.obj)
 .comment       0x0000000000000011       0x12 arch/arm/core/libarch__arm__core.a(irq_init.c.obj)
 .comment       0x0000000000000011       0x12 arch/arm/core/libarch__arm__core.a(swap.c.obj)
 .comment       0x0000000000000011       0x12 arch/arm/core/libarch__arm__core.a(fault.c.obj)
 .comment       0x0000000000000011       0x12 arch/arm/core/libarch__arm__core.a(irq_manage.c.obj)
 .comment       0x0000000000000011       0x12 arch/arm/core/libarch__arm__core.a(thread.c.obj)
 .comment       0x0000000000000011       0x12 arch/arm/core/libarch__arm__core.a(fatal.c.obj)
 .comment       0x0000000000000011       0x12 arch/arm/core/libarch__arm__core.a(sys_fatal_error_handler.c.obj)
 .comment       0x0000000000000011       0x12 arch/arm/core/libarch__arm__core.a(thread_abort.c.obj)
 .comment       0x0000000000000011       0x12 arch/arm/core/cortex_m/libarch__arm__core__cortex_m.a(prep_c.c.obj)
 .comment       0x0000000000000011       0x12 arch/arm/core/cortex_m/libarch__arm__core__cortex_m.a(nmi.c.obj)
 .comment       0x0000000000000011       0x12 arch/arm/core/cortex_m/mpu/libarch__arm__core__cortex_m__mpu.a(arm_mpu.c.obj)
 .comment       0x0000000000000011       0x12 lib/libc/minimal/liblib__libc__minimal.a(string.c.obj)
 .comment       0x0000000000000011       0x12 subsys/bluetooth/common/libsubsys__bluetooth__common.a(log.c.obj)
 .comment       0x0000000000000011       0x12 subsys/bluetooth/host/libsubsys__bluetooth__host.a(hci_core.c.obj)
 .comment       0x0000000000000011       0x12 subsys/bluetooth/controller/libsubsys__bluetooth__controller.a(mem.c.obj)
 .comment       0x0000000000000011       0x12 subsys/bluetooth/controller/libsubsys__bluetooth__controller.a(memq.c.obj)
 .comment       0x0000000000000011       0x12 subsys/bluetooth/controller/libsubsys__bluetooth__controller.a(mayfly.c.obj)
 .comment       0x0000000000000011       0x12 subsys/bluetooth/controller/libsubsys__bluetooth__controller.a(util.c.obj)
 .comment       0x0000000000000011       0x12 subsys/bluetooth/controller/libsubsys__bluetooth__controller.a(ticker.c.obj)
 .comment       0x0000000000000011       0x12 subsys/bluetooth/controller/libsubsys__bluetooth__controller.a(ll_addr.c.obj)
 .comment       0x0000000000000011       0x12 subsys/bluetooth/controller/libsubsys__bluetooth__controller.a(ll_tx_pwr.c.obj)
 .comment       0x0000000000000011       0x12 subsys/bluetooth/controller/libsubsys__bluetooth__controller.a(crypto.c.obj)
 .comment       0x0000000000000011       0x12 subsys/bluetooth/controller/libsubsys__bluetooth__controller.a(hci_driver.c.obj)
 .comment       0x0000000000000011       0x12 subsys/bluetooth/controller/libsubsys__bluetooth__controller.a(hci.c.obj)
 .comment       0x0000000000000011       0x12 subsys/bluetooth/controller/libsubsys__bluetooth__controller.a(ctrl.c.obj)
 .comment       0x0000000000000011       0x12 subsys/bluetooth/controller/libsubsys__bluetooth__controller.a(ll.c.obj)
 .comment       0x0000000000000011       0x12 subsys/bluetooth/controller/libsubsys__bluetooth__controller.a(ll_adv.c.obj)
 .comment       0x0000000000000011       0x12 subsys/bluetooth/controller/libsubsys__bluetooth__controller.a(ll_scan.c.obj)
 .comment       0x0000000000000011       0x12 subsys/bluetooth/controller/libsubsys__bluetooth__controller.a(ll_filter.c.obj)
 .comment       0x0000000000000011       0x12 subsys/bluetooth/controller/libsubsys__bluetooth__controller.a(cntr.c.obj)
 .comment       0x0000000000000011       0x12 subsys/bluetooth/controller/libsubsys__bluetooth__controller.a(ecb.c.obj)
 .comment       0x0000000000000011       0x12 subsys/bluetooth/controller/libsubsys__bluetooth__controller.a(radio.c.obj)
 .comment       0x0000000000000011       0x12 subsys/bluetooth/controller/libsubsys__bluetooth__controller.a(mayfly.c.obj)
 .comment       0x0000000000000011       0x12 subsys/bluetooth/controller/libsubsys__bluetooth__controller.a(ticker.c.obj)
 .comment       0x0000000000000011       0x12 subsys/net/libsubsys__net.a(buf.c.obj)
 .comment       0x0000000000000011       0x12 drivers/gpio/libdrivers__gpio.a(gpio_nrf5.c.obj)
 .comment       0x0000000000000011       0x12 drivers/serial/libdrivers__serial.a(uart_nrfx_uart.c.obj)
 .comment       0x0000000000000011       0x12 drivers/entropy/libdrivers__entropy.a(entropy_nrf5.c.obj)
 .comment       0x0000000000000011       0x12 kernel/libkernel.a(device.c.obj)
 .comment       0x0000000000000011       0x12 kernel/libkernel.a(errno.c.obj)
 .comment       0x0000000000000011       0x12 kernel/libkernel.a(idle.c.obj)
 .comment       0x0000000000000011       0x12 kernel/libkernel.a(init.c.obj)
 .comment       0x0000000000000011       0x12 kernel/libkernel.a(mempool.c.obj)
 .comment       0x0000000000000011       0x12 kernel/libkernel.a(queue.c.obj)
 .comment       0x0000000000000011       0x12 kernel/libkernel.a(sched.c.obj)
 .comment       0x0000000000000011       0x12 kernel/libkernel.a(sem.c.obj)
 .comment       0x0000000000000011       0x12 kernel/libkernel.a(sys_clock.c.obj)
 .comment       0x0000000000000011       0x12 kernel/libkernel.a(system_work_q.c.obj)
 .comment       0x0000000000000011       0x12 kernel/libkernel.a(thread.c.obj)
 .comment       0x0000000000000011       0x12 kernel/libkernel.a(work_q.c.obj)
 .comment       0x0000000000000011       0x12 kernel/libkernel.a(poll.c.obj)
 .comment       0x0000000000000011       0x12 CMakeFiles/offsets.dir/arch/arm/core/offsets/offsets.c.obj
 .comment       0x0000000000000011       0x12 /opt/zephyr-sdk/sysroots/armv5-zephyr-eabi/usr/lib/arm-zephyr-eabi/6.2.0/armv7e-m/libgcc.a(_popcountsi2.o)
 .comment       0x0000000000000011       0x12 /opt/zephyr-sdk/sysroots/armv5-zephyr-eabi/usr/lib/arm-zephyr-eabi/6.2.0/armv7e-m/libgcc.a(_udivmoddi4.o)

.ARM.attributes
                0x0000000000000000       0x31
 .ARM.attributes
                0x0000000000000000       0x33 CMakeFiles/kernel_elf.dir/isr_tables.c.obj
 .ARM.attributes
                0x0000000000000033       0x33 ../libapp.a(main.c.obj)
 .ARM.attributes
                0x0000000000000066       0x33 libzephyr.a(isr_tables.c.obj)
 .ARM.attributes
                0x0000000000000099       0x33 libzephyr.a(mpu_regions.c.obj)
 .ARM.attributes
                0x00000000000000cc       0x33 libzephyr.a(soc.c.obj)
 .ARM.attributes
                0x00000000000000ff       0x33 libzephyr.a(thread_entry.c.obj)
 .ARM.attributes
                0x0000000000000132       0x33 libzephyr.a(mempool.c.obj)
 .ARM.attributes
                0x0000000000000165       0x33 libzephyr.a(printk.c.obj)
 .ARM.attributes
                0x0000000000000198       0x33 libzephyr.a(configs.c.obj)
 .ARM.attributes
                0x00000000000001cb       0x33 libzephyr.a(rand32_entropy_device.c.obj)
 .ARM.attributes
                0x00000000000001fe       0x33 libzephyr.a(uart_console.c.obj)
 .ARM.attributes
                0x0000000000000231       0x33 libzephyr.a(nrf5_power_clock.c.obj)
 .ARM.attributes
                0x0000000000000264       0x33 libzephyr.a(sys_clock_init.c.obj)
 .ARM.attributes
                0x0000000000000297       0x33 libzephyr.a(nrf_rtc_timer.c.obj)
 .ARM.attributes
                0x00000000000002ca       0x21 arch/arm/core/libarch__arm__core.a(exc_exit.S.obj)
 .ARM.attributes
                0x00000000000002eb       0x33 arch/arm/core/libarch__arm__core.a(irq_init.c.obj)
 .ARM.attributes
                0x000000000000031e       0x33 arch/arm/core/libarch__arm__core.a(swap.c.obj)
 .ARM.attributes
                0x0000000000000351       0x21 arch/arm/core/libarch__arm__core.a(swap_helper.S.obj)
 .ARM.attributes
                0x0000000000000372       0x33 arch/arm/core/libarch__arm__core.a(fault.c.obj)
 .ARM.attributes
                0x00000000000003a5       0x33 arch/arm/core/libarch__arm__core.a(irq_manage.c.obj)
 .ARM.attributes
                0x00000000000003d8       0x33 arch/arm/core/libarch__arm__core.a(thread.c.obj)
 .ARM.attributes
                0x000000000000040b       0x21 arch/arm/core/libarch__arm__core.a(cpu_idle.S.obj)
 .ARM.attributes
                0x000000000000042c       0x21 arch/arm/core/libarch__arm__core.a(fault_s.S.obj)
 .ARM.attributes
                0x000000000000044d       0x33 arch/arm/core/libarch__arm__core.a(fatal.c.obj)
 .ARM.attributes
                0x0000000000000480       0x33 arch/arm/core/libarch__arm__core.a(sys_fatal_error_handler.c.obj)
 .ARM.attributes
                0x00000000000004b3       0x33 arch/arm/core/libarch__arm__core.a(thread_abort.c.obj)
 .ARM.attributes
                0x00000000000004e6       0x21 arch/arm/core/libarch__arm__core.a(isr_wrapper.S.obj)
 .ARM.attributes
                0x0000000000000507       0x21 arch/arm/core/cortex_m/libarch__arm__core__cortex_m.a(vector_table.S.obj)
 .ARM.attributes
                0x0000000000000528       0x21 arch/arm/core/cortex_m/libarch__arm__core__cortex_m.a(reset.S.obj)
 .ARM.attributes
                0x0000000000000549       0x21 arch/arm/core/cortex_m/libarch__arm__core__cortex_m.a(nmi_on_reset.S.obj)
 .ARM.attributes
                0x000000000000056a       0x33 arch/arm/core/cortex_m/libarch__arm__core__cortex_m.a(prep_c.c.obj)
 .ARM.attributes
                0x000000000000059d       0x33 arch/arm/core/cortex_m/libarch__arm__core__cortex_m.a(nmi.c.obj)
 .ARM.attributes
                0x00000000000005d0       0x33 arch/arm/core/cortex_m/mpu/libarch__arm__core__cortex_m__mpu.a(arm_mpu.c.obj)
 .ARM.attributes
                0x0000000000000603       0x33 lib/libc/minimal/liblib__libc__minimal.a(string.c.obj)
 .ARM.attributes
                0x0000000000000636       0x33 subsys/bluetooth/common/libsubsys__bluetooth__common.a(log.c.obj)
 .ARM.attributes
                0x0000000000000669       0x33 subsys/bluetooth/host/libsubsys__bluetooth__host.a(hci_core.c.obj)
 .ARM.attributes
                0x000000000000069c       0x33 subsys/bluetooth/controller/libsubsys__bluetooth__controller.a(mem.c.obj)
 .ARM.attributes
                0x00000000000006cf       0x33 subsys/bluetooth/controller/libsubsys__bluetooth__controller.a(memq.c.obj)
 .ARM.attributes
                0x0000000000000702       0x33 subsys/bluetooth/controller/libsubsys__bluetooth__controller.a(mayfly.c.obj)
 .ARM.attributes
                0x0000000000000735       0x33 subsys/bluetooth/controller/libsubsys__bluetooth__controller.a(util.c.obj)
 .ARM.attributes
                0x0000000000000768       0x33 subsys/bluetooth/controller/libsubsys__bluetooth__controller.a(ticker.c.obj)
 .ARM.attributes
                0x000000000000079b       0x33 subsys/bluetooth/controller/libsubsys__bluetooth__controller.a(ll_addr.c.obj)
 .ARM.attributes
                0x00000000000007ce       0x33 subsys/bluetooth/controller/libsubsys__bluetooth__controller.a(ll_tx_pwr.c.obj)
 .ARM.attributes
                0x0000000000000801       0x33 subsys/bluetooth/controller/libsubsys__bluetooth__controller.a(crypto.c.obj)
 .ARM.attributes
                0x0000000000000834       0x33 subsys/bluetooth/controller/libsubsys__bluetooth__controller.a(hci_driver.c.obj)
 .ARM.attributes
                0x0000000000000867       0x33 subsys/bluetooth/controller/libsubsys__bluetooth__controller.a(hci.c.obj)
 .ARM.attributes
                0x000000000000089a       0x33 subsys/bluetooth/controller/libsubsys__bluetooth__controller.a(ctrl.c.obj)
 .ARM.attributes
                0x00000000000008cd       0x33 subsys/bluetooth/controller/libsubsys__bluetooth__controller.a(ll.c.obj)
 .ARM.attributes
                0x0000000000000900       0x33 subsys/bluetooth/controller/libsubsys__bluetooth__controller.a(ll_adv.c.obj)
 .ARM.attributes
                0x0000000000000933       0x33 subsys/bluetooth/controller/libsubsys__bluetooth__controller.a(ll_scan.c.obj)
 .ARM.attributes
                0x0000000000000966       0x33 subsys/bluetooth/controller/libsubsys__bluetooth__controller.a(ll_filter.c.obj)
 .ARM.attributes
                0x0000000000000999       0x33 subsys/bluetooth/controller/libsubsys__bluetooth__controller.a(cntr.c.obj)
 .ARM.attributes
                0x00000000000009cc       0x33 subsys/bluetooth/controller/libsubsys__bluetooth__controller.a(ecb.c.obj)
 .ARM.attributes
                0x00000000000009ff       0x33 subsys/bluetooth/controller/libsubsys__bluetooth__controller.a(radio.c.obj)
 .ARM.attributes
                0x0000000000000a32       0x33 subsys/bluetooth/controller/libsubsys__bluetooth__controller.a(mayfly.c.obj)
 .ARM.attributes
                0x0000000000000a65       0x33 subsys/bluetooth/controller/libsubsys__bluetooth__controller.a(ticker.c.obj)
 .ARM.attributes
                0x0000000000000a98       0x33 subsys/net/libsubsys__net.a(buf.c.obj)
 .ARM.attributes
                0x0000000000000acb       0x33 drivers/gpio/libdrivers__gpio.a(gpio_nrf5.c.obj)
 .ARM.attributes
                0x0000000000000afe       0x33 drivers/serial/libdrivers__serial.a(uart_nrfx_uart.c.obj)
 .ARM.attributes
                0x0000000000000b31       0x33 drivers/entropy/libdrivers__entropy.a(entropy_nrf5.c.obj)
 .ARM.attributes
                0x0000000000000b64       0x33 kernel/libkernel.a(device.c.obj)
 .ARM.attributes
                0x0000000000000b97       0x33 kernel/libkernel.a(errno.c.obj)
 .ARM.attributes
                0x0000000000000bca       0x33 kernel/libkernel.a(idle.c.obj)
 .ARM.attributes
                0x0000000000000bfd       0x33 kernel/libkernel.a(init.c.obj)
 .ARM.attributes
                0x0000000000000c30       0x33 kernel/libkernel.a(mempool.c.obj)
 .ARM.attributes
                0x0000000000000c63       0x33 kernel/libkernel.a(queue.c.obj)
 .ARM.attributes
                0x0000000000000c96       0x33 kernel/libkernel.a(sched.c.obj)
 .ARM.attributes
                0x0000000000000cc9       0x33 kernel/libkernel.a(sem.c.obj)
 .ARM.attributes
                0x0000000000000cfc       0x33 kernel/libkernel.a(sys_clock.c.obj)
 .ARM.attributes
                0x0000000000000d2f       0x33 kernel/libkernel.a(system_work_q.c.obj)
 .ARM.attributes
                0x0000000000000d62       0x33 kernel/libkernel.a(thread.c.obj)
 .ARM.attributes
                0x0000000000000d95       0x33 kernel/libkernel.a(work_q.c.obj)
 .ARM.attributes
                0x0000000000000dc8       0x33 kernel/libkernel.a(poll.c.obj)
 .ARM.attributes
                0x0000000000000dfb       0x33 CMakeFiles/offsets.dir/arch/arm/core/offsets/offsets.c.obj
 .ARM.attributes
                0x0000000000000e2e       0x1e /opt/zephyr-sdk/sysroots/armv5-zephyr-eabi/usr/lib/arm-zephyr-eabi/6.2.0/armv7e-m/libgcc.a(_aeabi_uldivmod.o)
 .ARM.attributes
                0x0000000000000e4c       0x2e /opt/zephyr-sdk/sysroots/armv5-zephyr-eabi/usr/lib/arm-zephyr-eabi/6.2.0/armv7e-m/libgcc.a(_popcountsi2.o)
 .ARM.attributes
                0x0000000000000e7a       0x2e /opt/zephyr-sdk/sysroots/armv5-zephyr-eabi/usr/lib/arm-zephyr-eabi/6.2.0/armv7e-m/libgcc.a(_udivmoddi4.o)
 .ARM.attributes
                0x0000000000000ea8       0x1e /opt/zephyr-sdk/sysroots/armv5-zephyr-eabi/usr/lib/arm-zephyr-eabi/6.2.0/armv7e-m/libgcc.a(_dvmd_tls.o)

.debug_loc      0x0000000000000000    0x1b530
 .debug_loc     0x0000000000000000      0x110 ../libapp.a(main.c.obj)
 .debug_loc     0x0000000000000110       0x21 libzephyr.a(soc.c.obj)
 .debug_loc     0x0000000000000131       0x97 libzephyr.a(thread_entry.c.obj)
 .debug_loc     0x00000000000001c8      0xb33 libzephyr.a(mempool.c.obj)
 .debug_loc     0x0000000000000cfb      0xad4 libzephyr.a(printk.c.obj)
 .debug_loc     0x00000000000017cf       0xb1 libzephyr.a(rand32_entropy_device.c.obj)
 .debug_loc     0x0000000000001880       0xbf libzephyr.a(uart_console.c.obj)
 .debug_loc     0x000000000000193f      0x35b libzephyr.a(nrf5_power_clock.c.obj)
 .debug_loc     0x0000000000001c9a      0x1a4 libzephyr.a(nrf_rtc_timer.c.obj)
 .debug_loc     0x0000000000001e3e       0x5e arch/arm/core/libarch__arm__core.a(irq_init.c.obj)
 .debug_loc     0x0000000000001e9c       0x35 arch/arm/core/libarch__arm__core.a(swap.c.obj)
 .debug_loc     0x0000000000001ed1      0x3b7 arch/arm/core/libarch__arm__core.a(fault.c.obj)
 .debug_loc     0x0000000000002288      0x156 arch/arm/core/libarch__arm__core.a(irq_manage.c.obj)
 .debug_loc     0x00000000000023de      0x209 arch/arm/core/libarch__arm__core.a(thread.c.obj)
 .debug_loc     0x00000000000025e7      0x12e arch/arm/core/libarch__arm__core.a(fatal.c.obj)
 .debug_loc     0x0000000000002715       0x42 arch/arm/core/libarch__arm__core.a(sys_fatal_error_handler.c.obj)
 .debug_loc     0x0000000000002757       0x3f arch/arm/core/libarch__arm__core.a(thread_abort.c.obj)
 .debug_loc     0x0000000000002796      0x3b7 arch/arm/core/cortex_m/mpu/libarch__arm__core__cortex_m__mpu.a(arm_mpu.c.obj)
 .debug_loc     0x0000000000002b4d      0x8f5 lib/libc/minimal/liblib__libc__minimal.a(string.c.obj)
 .debug_loc     0x0000000000003442      0x205 subsys/bluetooth/common/libsubsys__bluetooth__common.a(log.c.obj)
 .debug_loc     0x0000000000003647     0x24a9 subsys/bluetooth/host/libsubsys__bluetooth__host.a(hci_core.c.obj)
 .debug_loc     0x0000000000005af0      0x3d9 subsys/bluetooth/controller/libsubsys__bluetooth__controller.a(mem.c.obj)
 .debug_loc     0x0000000000005ec9      0x11f subsys/bluetooth/controller/libsubsys__bluetooth__controller.a(memq.c.obj)
 .debug_loc     0x0000000000005fe8      0x3fd subsys/bluetooth/controller/libsubsys__bluetooth__controller.a(mayfly.c.obj)
 .debug_loc     0x00000000000063e5       0x73 subsys/bluetooth/controller/libsubsys__bluetooth__controller.a(util.c.obj)
 .debug_loc     0x0000000000006458     0x23a0 subsys/bluetooth/controller/libsubsys__bluetooth__controller.a(ticker.c.obj)
 .debug_loc     0x00000000000087f8       0xdc subsys/bluetooth/controller/libsubsys__bluetooth__controller.a(ll_addr.c.obj)
 .debug_loc     0x00000000000088d4       0x21 subsys/bluetooth/controller/libsubsys__bluetooth__controller.a(ll_tx_pwr.c.obj)
 .debug_loc     0x00000000000088f5      0x10d subsys/bluetooth/controller/libsubsys__bluetooth__controller.a(crypto.c.obj)
 .debug_loc     0x0000000000008a02      0x4e7 subsys/bluetooth/controller/libsubsys__bluetooth__controller.a(hci_driver.c.obj)
 .debug_loc     0x0000000000008ee9     0x2577 subsys/bluetooth/controller/libsubsys__bluetooth__controller.a(hci.c.obj)
 .debug_loc     0x000000000000b460     0x69a0 subsys/bluetooth/controller/libsubsys__bluetooth__controller.a(ctrl.c.obj)
 .debug_loc     0x0000000000011e00      0x1ad subsys/bluetooth/controller/libsubsys__bluetooth__controller.a(ll.c.obj)
 .debug_loc     0x0000000000011fad      0x640 subsys/bluetooth/controller/libsubsys__bluetooth__controller.a(ll_adv.c.obj)
 .debug_loc     0x00000000000125ed       0xea subsys/bluetooth/controller/libsubsys__bluetooth__controller.a(ll_scan.c.obj)
 .debug_loc     0x00000000000126d7      0x1cf subsys/bluetooth/controller/libsubsys__bluetooth__controller.a(ll_filter.c.obj)
 .debug_loc     0x00000000000128a6       0x21 subsys/bluetooth/controller/libsubsys__bluetooth__controller.a(cntr.c.obj)
 .debug_loc     0x00000000000128c7      0x29a subsys/bluetooth/controller/libsubsys__bluetooth__controller.a(ecb.c.obj)
 .debug_loc     0x0000000000012b61      0x6c9 subsys/bluetooth/controller/libsubsys__bluetooth__controller.a(radio.c.obj)
 .debug_loc     0x000000000001322a      0x250 subsys/bluetooth/controller/libsubsys__bluetooth__controller.a(mayfly.c.obj)
 .debug_loc     0x000000000001347a      0x1bf subsys/bluetooth/controller/libsubsys__bluetooth__controller.a(ticker.c.obj)
 .debug_loc     0x0000000000013639     0x104e subsys/net/libsubsys__net.a(buf.c.obj)
 .debug_loc     0x0000000000014687      0xaf6 drivers/gpio/libdrivers__gpio.a(gpio_nrf5.c.obj)
 .debug_loc     0x000000000001517d      0x44c drivers/serial/libdrivers__serial.a(uart_nrfx_uart.c.obj)
 .debug_loc     0x00000000000155c9      0x7fb drivers/entropy/libdrivers__entropy.a(entropy_nrf5.c.obj)
 .debug_loc     0x0000000000015dc4       0xf5 kernel/libkernel.a(device.c.obj)
 .debug_loc     0x0000000000015eb9       0x8f kernel/libkernel.a(idle.c.obj)
 .debug_loc     0x0000000000015f48      0x3e2 kernel/libkernel.a(init.c.obj)
 .debug_loc     0x000000000001632a      0x32c kernel/libkernel.a(mempool.c.obj)
 .debug_loc     0x0000000000016656      0xac9 kernel/libkernel.a(queue.c.obj)
 .debug_loc     0x000000000001711f     0x15ca kernel/libkernel.a(sched.c.obj)
 .debug_loc     0x00000000000186e9      0x243 kernel/libkernel.a(sem.c.obj)
 .debug_loc     0x000000000001892c      0x4be kernel/libkernel.a(sys_clock.c.obj)
 .debug_loc     0x0000000000018dea       0x21 kernel/libkernel.a(system_work_q.c.obj)
 .debug_loc     0x0000000000018e0b      0xa91 kernel/libkernel.a(thread.c.obj)
 .debug_loc     0x000000000001989c      0x81d kernel/libkernel.a(work_q.c.obj)
 .debug_loc     0x000000000001a0b9      0x65b kernel/libkernel.a(poll.c.obj)
 .debug_loc     0x000000000001a714       0xa5 /opt/zephyr-sdk/sysroots/armv5-zephyr-eabi/usr/lib/arm-zephyr-eabi/6.2.0/armv7e-m/libgcc.a(_popcountsi2.o)
 .debug_loc     0x000000000001a7b9      0xd77 /opt/zephyr-sdk/sysroots/armv5-zephyr-eabi/usr/lib/arm-zephyr-eabi/6.2.0/armv7e-m/libgcc.a(_udivmoddi4.o)

.debug_ranges   0x0000000000000000     0x3c40
 .debug_ranges  0x0000000000000000       0x18 ../libapp.a(main.c.obj)
 .debug_ranges  0x0000000000000018       0x10 libzephyr.a(isr_tables.c.obj)
 .debug_ranges  0x0000000000000028       0x18 libzephyr.a(soc.c.obj)
 .debug_ranges  0x0000000000000040       0x10 libzephyr.a(thread_entry.c.obj)
 .debug_ranges  0x0000000000000050      0x210 libzephyr.a(mempool.c.obj)
 .debug_ranges  0x0000000000000260       0xf0 libzephyr.a(printk.c.obj)
 .debug_ranges  0x0000000000000350       0x10 libzephyr.a(configs.c.obj)
 .debug_ranges  0x0000000000000360       0x10 libzephyr.a(rand32_entropy_device.c.obj)
 .debug_ranges  0x0000000000000370       0x20 libzephyr.a(uart_console.c.obj)
 .debug_ranges  0x0000000000000390       0x80 libzephyr.a(nrf5_power_clock.c.obj)
 .debug_ranges  0x0000000000000410       0x70 libzephyr.a(nrf_rtc_timer.c.obj)
 .debug_ranges  0x0000000000000480       0x30 arch/arm/core/libarch__arm__core.a(irq_init.c.obj)
 .debug_ranges  0x00000000000004b0       0x10 arch/arm/core/libarch__arm__core.a(swap.c.obj)
 .debug_ranges  0x00000000000004c0       0x20 arch/arm/core/libarch__arm__core.a(swap_helper.S.obj)
 .debug_ranges  0x00000000000004e0       0xb8 arch/arm/core/libarch__arm__core.a(fault.c.obj)
 .debug_ranges  0x0000000000000598       0x50 arch/arm/core/libarch__arm__core.a(irq_manage.c.obj)
 .debug_ranges  0x00000000000005e8       0x40 arch/arm/core/libarch__arm__core.a(thread.c.obj)
 .debug_ranges  0x0000000000000628       0x38 arch/arm/core/libarch__arm__core.a(cpu_idle.S.obj)
 .debug_ranges  0x0000000000000660       0x20 arch/arm/core/libarch__arm__core.a(fatal.c.obj)
 .debug_ranges  0x0000000000000680       0x28 arch/arm/core/libarch__arm__core.a(sys_fatal_error_handler.c.obj)
 .debug_ranges  0x00000000000006a8       0x10 arch/arm/core/libarch__arm__core.a(thread_abort.c.obj)
 .debug_ranges  0x00000000000006b8       0x10 arch/arm/core/cortex_m/libarch__arm__core__cortex_m.a(prep_c.c.obj)
 .debug_ranges  0x00000000000006c8       0x10 arch/arm/core/cortex_m/libarch__arm__core__cortex_m.a(nmi.c.obj)
 .debug_ranges  0x00000000000006d8      0x120 arch/arm/core/cortex_m/mpu/libarch__arm__core__cortex_m__mpu.a(arm_mpu.c.obj)
 .debug_ranges  0x00000000000007f8       0x90 lib/libc/minimal/liblib__libc__minimal.a(string.c.obj)
 .debug_ranges  0x0000000000000888       0x58 subsys/bluetooth/common/libsubsys__bluetooth__common.a(log.c.obj)
 .debug_ranges  0x00000000000008e0      0x608 subsys/bluetooth/host/libsubsys__bluetooth__host.a(hci_core.c.obj)
 .debug_ranges  0x0000000000000ee8       0x88 subsys/bluetooth/controller/libsubsys__bluetooth__controller.a(mem.c.obj)
 .debug_ranges  0x0000000000000f70       0x40 subsys/bluetooth/controller/libsubsys__bluetooth__controller.a(memq.c.obj)
 .debug_ranges  0x0000000000000fb0       0x78 subsys/bluetooth/controller/libsubsys__bluetooth__controller.a(mayfly.c.obj)
 .debug_ranges  0x0000000000001028       0x10 subsys/bluetooth/controller/libsubsys__bluetooth__controller.a(util.c.obj)
 .debug_ranges  0x0000000000001038      0x348 subsys/bluetooth/controller/libsubsys__bluetooth__controller.a(ticker.c.obj)
 .debug_ranges  0x0000000000001380       0x18 subsys/bluetooth/controller/libsubsys__bluetooth__controller.a(ll_addr.c.obj)
 .debug_ranges  0x0000000000001398       0x18 subsys/bluetooth/controller/libsubsys__bluetooth__controller.a(ll_tx_pwr.c.obj)
 .debug_ranges  0x00000000000013b0       0x20 subsys/bluetooth/controller/libsubsys__bluetooth__controller.a(crypto.c.obj)
 .debug_ranges  0x00000000000013d0       0xb8 subsys/bluetooth/controller/libsubsys__bluetooth__controller.a(hci_driver.c.obj)
 .debug_ranges  0x0000000000001488      0x240 subsys/bluetooth/controller/libsubsys__bluetooth__controller.a(hci.c.obj)
 .debug_ranges  0x00000000000016c8      0xc30 subsys/bluetooth/controller/libsubsys__bluetooth__controller.a(ctrl.c.obj)
 .debug_ranges  0x00000000000022f8       0x40 subsys/bluetooth/controller/libsubsys__bluetooth__controller.a(ll.c.obj)
 .debug_ranges  0x0000000000002338       0x88 subsys/bluetooth/controller/libsubsys__bluetooth__controller.a(ll_adv.c.obj)
 .debug_ranges  0x00000000000023c0       0x18 subsys/bluetooth/controller/libsubsys__bluetooth__controller.a(ll_scan.c.obj)
 .debug_ranges  0x00000000000023d8       0x50 subsys/bluetooth/controller/libsubsys__bluetooth__controller.a(ll_filter.c.obj)
 .debug_ranges  0x0000000000002428       0x30 subsys/bluetooth/controller/libsubsys__bluetooth__controller.a(cntr.c.obj)
 .debug_ranges  0x0000000000002458       0x58 subsys/bluetooth/controller/libsubsys__bluetooth__controller.a(ecb.c.obj)
 .debug_ranges  0x00000000000024b0      0x230 subsys/bluetooth/controller/libsubsys__bluetooth__controller.a(radio.c.obj)
 .debug_ranges  0x00000000000026e0       0x40 subsys/bluetooth/controller/libsubsys__bluetooth__controller.a(mayfly.c.obj)
 .debug_ranges  0x0000000000002720       0x50 subsys/bluetooth/controller/libsubsys__bluetooth__controller.a(ticker.c.obj)
 .debug_ranges  0x0000000000002770      0x370 subsys/net/libsubsys__net.a(buf.c.obj)
 .debug_ranges  0x0000000000002ae0       0xe0 drivers/gpio/libdrivers__gpio.a(gpio_nrf5.c.obj)
 .debug_ranges  0x0000000000002bc0       0xb8 drivers/serial/libdrivers__serial.a(uart_nrfx_uart.c.obj)
 .debug_ranges  0x0000000000002c78       0xc8 drivers/entropy/libdrivers__entropy.a(entropy_nrf5.c.obj)
 .debug_ranges  0x0000000000002d40       0x20 kernel/libkernel.a(device.c.obj)
 .debug_ranges  0x0000000000002d60       0x10 kernel/libkernel.a(errno.c.obj)
 .debug_ranges  0x0000000000002d70       0xa0 kernel/libkernel.a(idle.c.obj)
 .debug_ranges  0x0000000000002e10      0x158 kernel/libkernel.a(init.c.obj)
 .debug_ranges  0x0000000000002f68       0x40 kernel/libkernel.a(mempool.c.obj)
 .debug_ranges  0x0000000000002fa8      0x180 kernel/libkernel.a(queue.c.obj)
 .debug_ranges  0x0000000000003128      0x2e0 kernel/libkernel.a(sched.c.obj)
 .debug_ranges  0x0000000000003408       0x70 kernel/libkernel.a(sem.c.obj)
 .debug_ranges  0x0000000000003478      0x1c8 kernel/libkernel.a(sys_clock.c.obj)
 .debug_ranges  0x0000000000003640       0x10 kernel/libkernel.a(system_work_q.c.obj)
 .debug_ranges  0x0000000000003650      0x228 kernel/libkernel.a(thread.c.obj)
 .debug_ranges  0x0000000000003878      0x1a8 kernel/libkernel.a(work_q.c.obj)
 .debug_ranges  0x0000000000003a20      0x140 kernel/libkernel.a(poll.c.obj)
 .debug_ranges  0x0000000000003b60       0x10 CMakeFiles/offsets.dir/arch/arm/core/offsets/offsets.c.obj
 .debug_ranges  0x0000000000003b70       0xd0 /opt/zephyr-sdk/sysroots/armv5-zephyr-eabi/usr/lib/arm-zephyr-eabi/6.2.0/armv7e-m/libgcc.a(_udivmoddi4.o)

.debug_frame    0x0000000000000000     0x4028
 .debug_frame   0x0000000000000000       0x44 ../libapp.a(main.c.obj)
 .debug_frame   0x0000000000000044       0x20 libzephyr.a(isr_tables.c.obj)
 .debug_frame   0x0000000000000064       0x38 libzephyr.a(soc.c.obj)
 .debug_frame   0x000000000000009c       0x28 libzephyr.a(thread_entry.c.obj)
 .debug_frame   0x00000000000000c4      0x130 libzephyr.a(mempool.c.obj)
 .debug_frame   0x00000000000001f4      0x188 libzephyr.a(printk.c.obj)
 .debug_frame   0x000000000000037c       0x20 libzephyr.a(configs.c.obj)
 .debug_frame   0x000000000000039c       0x2c libzephyr.a(rand32_entropy_device.c.obj)
 .debug_frame   0x00000000000003c8       0x54 libzephyr.a(uart_console.c.obj)
 .debug_frame   0x000000000000041c       0xa0 libzephyr.a(nrf5_power_clock.c.obj)
 .debug_frame   0x00000000000004bc       0xb4 libzephyr.a(nrf_rtc_timer.c.obj)
 .debug_frame   0x0000000000000570       0x20 arch/arm/core/libarch__arm__core.a(irq_init.c.obj)
 .debug_frame   0x0000000000000590       0x20 arch/arm/core/libarch__arm__core.a(swap.c.obj)
 .debug_frame   0x00000000000005b0       0xc0 arch/arm/core/libarch__arm__core.a(fault.c.obj)
 .debug_frame   0x0000000000000670       0x78 arch/arm/core/libarch__arm__core.a(irq_manage.c.obj)
 .debug_frame   0x00000000000006e8       0x30 arch/arm/core/libarch__arm__core.a(thread.c.obj)
 .debug_frame   0x0000000000000718       0x60 arch/arm/core/libarch__arm__core.a(fatal.c.obj)
 .debug_frame   0x0000000000000778       0x2c arch/arm/core/libarch__arm__core.a(sys_fatal_error_handler.c.obj)
 .debug_frame   0x00000000000007a4       0x34 arch/arm/core/libarch__arm__core.a(thread_abort.c.obj)
 .debug_frame   0x00000000000007d8       0x28 arch/arm/core/cortex_m/libarch__arm__core__cortex_m.a(prep_c.c.obj)
 .debug_frame   0x0000000000000800       0x2c arch/arm/core/cortex_m/libarch__arm__core__cortex_m.a(nmi.c.obj)
 .debug_frame   0x000000000000082c       0x64 arch/arm/core/cortex_m/mpu/libarch__arm__core__cortex_m__mpu.a(arm_mpu.c.obj)
 .debug_frame   0x0000000000000890      0x154 lib/libc/minimal/liblib__libc__minimal.a(string.c.obj)
 .debug_frame   0x00000000000009e4       0x70 subsys/bluetooth/common/libsubsys__bluetooth__common.a(log.c.obj)
 .debug_frame   0x0000000000000a54      0x4b4 subsys/bluetooth/host/libsubsys__bluetooth__host.a(hci_core.c.obj)
 .debug_frame   0x0000000000000f08       0xf0 subsys/bluetooth/controller/libsubsys__bluetooth__controller.a(mem.c.obj)
 .debug_frame   0x0000000000000ff8       0x58 subsys/bluetooth/controller/libsubsys__bluetooth__controller.a(memq.c.obj)
 .debug_frame   0x0000000000001050       0xb8 subsys/bluetooth/controller/libsubsys__bluetooth__controller.a(mayfly.c.obj)
 .debug_frame   0x0000000000001108       0x28 subsys/bluetooth/controller/libsubsys__bluetooth__controller.a(util.c.obj)
 .debug_frame   0x0000000000001130      0x21c subsys/bluetooth/controller/libsubsys__bluetooth__controller.a(ticker.c.obj)
 .debug_frame   0x000000000000134c       0x44 subsys/bluetooth/controller/libsubsys__bluetooth__controller.a(ll_addr.c.obj)
 .debug_frame   0x0000000000001390       0x30 subsys/bluetooth/controller/libsubsys__bluetooth__controller.a(ll_tx_pwr.c.obj)
 .debug_frame   0x00000000000013c0       0x60 subsys/bluetooth/controller/libsubsys__bluetooth__controller.a(crypto.c.obj)
 .debug_frame   0x0000000000001420       0xa0 subsys/bluetooth/controller/libsubsys__bluetooth__controller.a(hci_driver.c.obj)
 .debug_frame   0x00000000000014c0      0x1cc subsys/bluetooth/controller/libsubsys__bluetooth__controller.a(hci.c.obj)
 .debug_frame   0x000000000000168c      0xc74 subsys/bluetooth/controller/libsubsys__bluetooth__controller.a(ctrl.c.obj)
 .debug_frame   0x0000000000002300       0xbc subsys/bluetooth/controller/libsubsys__bluetooth__controller.a(ll.c.obj)
 .debug_frame   0x00000000000023bc       0xc8 subsys/bluetooth/controller/libsubsys__bluetooth__controller.a(ll_adv.c.obj)
 .debug_frame   0x0000000000002484       0x68 subsys/bluetooth/controller/libsubsys__bluetooth__controller.a(ll_scan.c.obj)
 .debug_frame   0x00000000000024ec       0xa0 subsys/bluetooth/controller/libsubsys__bluetooth__controller.a(ll_filter.c.obj)
 .debug_frame   0x000000000000258c       0x6c subsys/bluetooth/controller/libsubsys__bluetooth__controller.a(cntr.c.obj)
 .debug_frame   0x00000000000025f8       0xe8 subsys/bluetooth/controller/libsubsys__bluetooth__controller.a(ecb.c.obj)
 .debug_frame   0x00000000000026e0      0x4e4 subsys/bluetooth/controller/libsubsys__bluetooth__controller.a(radio.c.obj)
 .debug_frame   0x0000000000002bc4       0x84 subsys/bluetooth/controller/libsubsys__bluetooth__controller.a(mayfly.c.obj)
 .debug_frame   0x0000000000002c48       0x5c subsys/bluetooth/controller/libsubsys__bluetooth__controller.a(ticker.c.obj)
 .debug_frame   0x0000000000002ca4      0x3e0 subsys/net/libsubsys__net.a(buf.c.obj)
 .debug_frame   0x0000000000003084      0x118 drivers/gpio/libdrivers__gpio.a(gpio_nrf5.c.obj)
 .debug_frame   0x000000000000319c       0x70 drivers/serial/libdrivers__serial.a(uart_nrfx_uart.c.obj)
 .debug_frame   0x000000000000320c       0xd4 drivers/entropy/libdrivers__entropy.a(entropy_nrf5.c.obj)
 .debug_frame   0x00000000000032e0       0x68 kernel/libkernel.a(device.c.obj)
 .debug_frame   0x0000000000003348       0x20 kernel/libkernel.a(errno.c.obj)
 .debug_frame   0x0000000000003368       0x58 kernel/libkernel.a(idle.c.obj)
 .debug_frame   0x00000000000033c0       0xa8 kernel/libkernel.a(init.c.obj)
 .debug_frame   0x0000000000003468       0xcc kernel/libkernel.a(mempool.c.obj)
 .debug_frame   0x0000000000003534      0x12c kernel/libkernel.a(queue.c.obj)
 .debug_frame   0x0000000000003660      0x3c4 kernel/libkernel.a(sched.c.obj)
 .debug_frame   0x0000000000003a24       0x84 kernel/libkernel.a(sem.c.obj)
 .debug_frame   0x0000000000003aa8       0xb8 kernel/libkernel.a(sys_clock.c.obj)
 .debug_frame   0x0000000000003b60       0x28 kernel/libkernel.a(system_work_q.c.obj)
 .debug_frame   0x0000000000003b88      0x238 kernel/libkernel.a(thread.c.obj)
 .debug_frame   0x0000000000003dc0       0xc8 kernel/libkernel.a(work_q.c.obj)
 .debug_frame   0x0000000000003e88      0x100 kernel/libkernel.a(poll.c.obj)
 .debug_frame   0x0000000000003f88       0x20 CMakeFiles/offsets.dir/arch/arm/core/offsets/offsets.c.obj
 .debug_frame   0x0000000000003fa8       0x2c /opt/zephyr-sdk/sysroots/armv5-zephyr-eabi/usr/lib/arm-zephyr-eabi/6.2.0/armv7e-m/libgcc.a(_aeabi_uldivmod.o)
 .debug_frame   0x0000000000003fd4       0x20 /opt/zephyr-sdk/sysroots/armv5-zephyr-eabi/usr/lib/arm-zephyr-eabi/6.2.0/armv7e-m/libgcc.a(_popcountsi2.o)
 .debug_frame   0x0000000000003ff4       0x34 /opt/zephyr-sdk/sysroots/armv5-zephyr-eabi/usr/lib/arm-zephyr-eabi/6.2.0/armv7e-m/libgcc.a(_udivmoddi4.o)
